###############################################################################
#                                                                             #
# IAR C/C++ Compiler V8.10.3.10338/W32 for 8051         14/Jul/2014  14:33:36 #
# Copyright 2004-2011 IAR Systems AB.                                         #
#                                                                             #
#    Core               =  plain                                              #
#    Code model         =  banked                                             #
#    Data model         =  large                                              #
#    Calling convention =  xdata reentrant                                    #
#    Constant location  =  data_rom                                           #
#    Dptr setup         =  1,16                                               #
#    Source file        =  C:\Users\OurEDA\Documents\Tencent                  #
#                          Files\1534143789\FileRecv\ZStack-CC2530-2.5.1a\ZSt #
#                          ack-CC2530-2.5.1a\Projects\zstack\Samples\06GPS\So #
#                          urce\GPS.c                                         #
#    Command line       =  -f "C:\Users\OurEDA\Documents\Tencent              #
#                          Files\1534143789\FileRecv\ZStack-CC2530-2.5.1a\ZSt #
#                          ack-CC2530-2.5.1a\Projects\zstack\Samples\06GPS\CC #
#                          2530DB\..\..\..\Tools\CC2530DB\f8wEndev.cfg"       #
#                          (-DCPU32MHZ -DROOT=__near_func                     #
#                          -DMAC_CFG_TX_DATA_MAX=3 -DMAC_CFG_TX_MAX=6         #
#                          -DMAC_CFG_RX_MAX=3) -f "C:\Users\OurEDA\Documents\ #
#                          Tencent Files\1534143789\FileRecv\ZStack-CC2530-2. #
#                          5.1a\ZStack-CC2530-2.5.1a\Projects\zstack\Samples\ #
#                          06GPS\CC2530DB\..\..\..\Tools\CC2530DB\f8wConfig.c #
#                          fg" (-DZIGBEEPRO -DSECURE=0 -DZG_SECURE_DYNAMIC=0  #
#                          -DREFLECTOR -DDEFAULT_CHANLIST=0x00000800          #
#                          -DZDAPP_CONFIG_PAN_ID=0xFFFF                       #
#                          -DNWK_START_DELAY=100 -DEXTENDED_JOINING_RANDOM_MA #
#                          SK=0x007F -DBEACON_REQUEST_DELAY=100               #
#                          -DBEACON_REQ_DELAY_MASK=0x00FF                     #
#                          -DLINK_STATUS_JITTER_MASK=0x007F                   #
#                          -DROUTE_EXPIRY_TIME=30 -DAPSC_ACK_WAIT_DURATION_PO #
#                          LLED=3000 -DNWK_INDIRECT_MSG_TIMEOUT=7             #
#                          -DMAX_RREQ_ENTRIES=8 -DAPSC_MAX_FRAME_RETRIES=3    #
#                          -DNWK_MAX_DATA_RETRIES=2                           #
#                          -DMAX_POLL_FAILURE_RETRIES=2 -DMAX_BCAST=9         #
#                          -DAPS_MAX_GROUPS=16 -DMAX_RTG_ENTRIES=40           #
#                          -DNWK_MAX_BINDING_ENTRIES=4                        #
#                          -DMAX_BINDING_CLUSTER_IDS=4 "-DDEFAULT_KEY={0x01,  #
#                          0x03, 0x05, 0x07, 0x09, 0x0B, 0x0D, 0x0F, 0x00,    #
#                          0x02, 0x04, 0x06, 0x08, 0x0A, 0x0C, 0x0D}"         #
#                          -DMAC_MAX_FRAME_SIZE=116                           #
#                          -DZDNWKMGR_MIN_TRANSMISSIONS=20 "-DCONST=const     #
#                          __code" -DGENERIC=__generic                        #
#                          -DRFD_RCVC_ALWAYS_ON=FALSE -DPOLL_RATE=1000        #
#                          -DQUEUED_POLL_RATE=100 -DRESPONSE_POLL_RATE=100)   #
#                          -DREJOIN_POLL_RATE=440 "C:\Users\OurEDA\Documents\ #
#                          Tencent Files\1534143789\FileRecv\ZStack-CC2530-2. #
#                          5.1a\ZStack-CC2530-2.5.1a\Projects\zstack\Samples\ #
#                          06GPS\Source\GPS.c" -D NWK_AUTO_POLL -D ZTOOL_P1   #
#                          -D MT_TASK -D MT_SYS_FUNC -D MT_ZDO_FUNC -D        #
#                          LCD_SUPPORTED=DEBUG -D xPOWER_SAVING -lC           #
#                          "C:\Users\OurEDA\Documents\Tencent                 #
#                          Files\1534143789\FileRecv\ZStack-CC2530-2.5.1a\ZSt #
#                          ack-CC2530-2.5.1a\Projects\zstack\Samples\06GPS\CC #
#                          2530DB\EndDeviceEB\List\" -lA                      #
#                          "C:\Users\OurEDA\Documents\Tencent                 #
#                          Files\1534143789\FileRecv\ZStack-CC2530-2.5.1a\ZSt #
#                          ack-CC2530-2.5.1a\Projects\zstack\Samples\06GPS\CC #
#                          2530DB\EndDeviceEB\List\" --diag_suppress          #
#                          Pe001,Pa010 -o "C:\Users\OurEDA\Documents\Tencent  #
#                          Files\1534143789\FileRecv\ZStack-CC2530-2.5.1a\ZSt #
#                          ack-CC2530-2.5.1a\Projects\zstack\Samples\06GPS\CC #
#                          2530DB\EndDeviceEB\Obj\" -e --no_code_motion       #
#                          --debug --core=plain --dptr=16,1                   #
#                          --data_model=large --code_model=banked             #
#                          --calling_convention=xdata_reentrant               #
#                          --place_constants=data_rom --nr_virtual_regs 16    #
#                          -I "C:\Users\OurEDA\Documents\Tencent              #
#                          Files\1534143789\FileRecv\ZStack-CC2530-2.5.1a\ZSt #
#                          ack-CC2530-2.5.1a\Projects\zstack\Samples\06GPS\CC #
#                          2530DB\" -I "C:\Users\OurEDA\Documents\Tencent     #
#                          Files\1534143789\FileRecv\ZStack-CC2530-2.5.1a\ZSt #
#                          ack-CC2530-2.5.1a\Projects\zstack\Samples\06GPS\CC #
#                          2530DB\..\Source\" -I "C:\Users\OurEDA\Documents\T #
#                          encent Files\1534143789\FileRecv\ZStack-CC2530-2.5 #
#                          .1a\ZStack-CC2530-2.5.1a\Projects\zstack\Samples\0 #
#                          6GPS\CC2530DB\..\..\..\ZMain\TI2530DB\" -I         #
#                          "C:\Users\OurEDA\Documents\Tencent                 #
#                          Files\1534143789\FileRecv\ZStack-CC2530-2.5.1a\ZSt #
#                          ack-CC2530-2.5.1a\Projects\zstack\Samples\06GPS\CC #
#                          2530DB\..\..\..\..\..\Components\hal\include\" -I  #
#                          "C:\Users\OurEDA\Documents\Tencent                 #
#                          Files\1534143789\FileRecv\ZStack-CC2530-2.5.1a\ZSt #
#                          ack-CC2530-2.5.1a\Projects\zstack\Samples\06GPS\CC #
#                          2530DB\..\..\..\..\..\Components\hal\target\CC2530 #
#                          EB\" -I "C:\Users\OurEDA\Documents\Tencent         #
#                          Files\1534143789\FileRecv\ZStack-CC2530-2.5.1a\ZSt #
#                          ack-CC2530-2.5.1a\Projects\zstack\Samples\06GPS\CC #
#                          2530DB\..\..\..\..\..\Components\mac\include\" -I  #
#                          "C:\Users\OurEDA\Documents\Tencent                 #
#                          Files\1534143789\FileRecv\ZStack-CC2530-2.5.1a\ZSt #
#                          ack-CC2530-2.5.1a\Projects\zstack\Samples\06GPS\CC #
#                          2530DB\..\..\..\..\..\Components\mac\high_level\"  #
#                          -I "C:\Users\OurEDA\Documents\Tencent              #
#                          Files\1534143789\FileRecv\ZStack-CC2530-2.5.1a\ZSt #
#                          ack-CC2530-2.5.1a\Projects\zstack\Samples\06GPS\CC #
#                          2530DB\..\..\..\..\..\Components\mac\low_level\srf #
#                          04\" -I "C:\Users\OurEDA\Documents\Tencent         #
#                          Files\1534143789\FileRecv\ZStack-CC2530-2.5.1a\ZSt #
#                          ack-CC2530-2.5.1a\Projects\zstack\Samples\06GPS\CC #
#                          2530DB\..\..\..\..\..\Components\mac\low_level\srf #
#                          04\single_chip\" -I "C:\Users\OurEDA\Documents\Ten #
#                          cent Files\1534143789\FileRecv\ZStack-CC2530-2.5.1 #
#                          a\ZStack-CC2530-2.5.1a\Projects\zstack\Samples\06G #
#                          PS\CC2530DB\..\..\..\..\..\Components\mt\" -I      #
#                          "C:\Users\OurEDA\Documents\Tencent                 #
#                          Files\1534143789\FileRecv\ZStack-CC2530-2.5.1a\ZSt #
#                          ack-CC2530-2.5.1a\Projects\zstack\Samples\06GPS\CC #
#                          2530DB\..\..\..\..\..\Components\osal\include\"    #
#                          -I "C:\Users\OurEDA\Documents\Tencent              #
#                          Files\1534143789\FileRecv\ZStack-CC2530-2.5.1a\ZSt #
#                          ack-CC2530-2.5.1a\Projects\zstack\Samples\06GPS\CC #
#                          2530DB\..\..\..\..\..\Components\services\saddr\"  #
#                          -I "C:\Users\OurEDA\Documents\Tencent              #
#                          Files\1534143789\FileRecv\ZStack-CC2530-2.5.1a\ZSt #
#                          ack-CC2530-2.5.1a\Projects\zstack\Samples\06GPS\CC #
#                          2530DB\..\..\..\..\..\Components\services\sdata\"  #
#                          -I "C:\Users\OurEDA\Documents\Tencent              #
#                          Files\1534143789\FileRecv\ZStack-CC2530-2.5.1a\ZSt #
#                          ack-CC2530-2.5.1a\Projects\zstack\Samples\06GPS\CC #
#                          2530DB\..\..\..\..\..\Components\stack\af\" -I     #
#                          "C:\Users\OurEDA\Documents\Tencent                 #
#                          Files\1534143789\FileRecv\ZStack-CC2530-2.5.1a\ZSt #
#                          ack-CC2530-2.5.1a\Projects\zstack\Samples\06GPS\CC #
#                          2530DB\..\..\..\..\..\Components\stack\nwk\" -I    #
#                          "C:\Users\OurEDA\Documents\Tencent                 #
#                          Files\1534143789\FileRecv\ZStack-CC2530-2.5.1a\ZSt #
#                          ack-CC2530-2.5.1a\Projects\zstack\Samples\06GPS\CC #
#                          2530DB\..\..\..\..\..\Components\stack\sapi\" -I   #
#                          "C:\Users\OurEDA\Documents\Tencent                 #
#                          Files\1534143789\FileRecv\ZStack-CC2530-2.5.1a\ZSt #
#                          ack-CC2530-2.5.1a\Projects\zstack\Samples\06GPS\CC #
#                          2530DB\..\..\..\..\..\Components\stack\sec\" -I    #
#                          "C:\Users\OurEDA\Documents\Tencent                 #
#                          Files\1534143789\FileRecv\ZStack-CC2530-2.5.1a\ZSt #
#                          ack-CC2530-2.5.1a\Projects\zstack\Samples\06GPS\CC #
#                          2530DB\..\..\..\..\..\Components\stack\sys\" -I    #
#                          "C:\Users\OurEDA\Documents\Tencent                 #
#                          Files\1534143789\FileRecv\ZStack-CC2530-2.5.1a\ZSt #
#                          ack-CC2530-2.5.1a\Projects\zstack\Samples\06GPS\CC #
#                          2530DB\..\..\..\..\..\Components\stack\zdo\" -I    #
#                          "C:\Users\OurEDA\Documents\Tencent                 #
#                          Files\1534143789\FileRecv\ZStack-CC2530-2.5.1a\ZSt #
#                          ack-CC2530-2.5.1a\Projects\zstack\Samples\06GPS\CC #
#                          2530DB\..\..\..\..\..\Components\zmac\" -I         #
#                          "C:\Users\OurEDA\Documents\Tencent                 #
#                          Files\1534143789\FileRecv\ZStack-CC2530-2.5.1a\ZSt #
#                          ack-CC2530-2.5.1a\Projects\zstack\Samples\06GPS\CC #
#                          2530DB\..\..\..\..\..\Components\zmac\f8w\" -Ohz   #
#    List file          =  C:\Users\OurEDA\Documents\Tencent                  #
#                          Files\1534143789\FileRecv\ZStack-CC2530-2.5.1a\ZSt #
#                          ack-CC2530-2.5.1a\Projects\zstack\Samples\06GPS\CC #
#                          2530DB\EndDeviceEB\List\GPS.lst                    #
#    Object file        =  C:\Users\OurEDA\Documents\Tencent                  #
#                          Files\1534143789\FileRecv\ZStack-CC2530-2.5.1a\ZSt #
#                          ack-CC2530-2.5.1a\Projects\zstack\Samples\06GPS\CC #
#                          2530DB\EndDeviceEB\Obj\GPS.r51                     #
#                                                                             #
#                                                                             #
###############################################################################

C:\Users\OurEDA\Documents\Tencent Files\1534143789\FileRecv\ZStack-CC2530-2.5.1a\ZStack-CC2530-2.5.1a\Projects\zstack\Samples\06GPS\Source\GPS.c
      1          /******************************************************************************
      2            Filename:       Gps.c
      3            Revised:        $Date: 2012-03-07 01:04:58 -0800 (Wed, 07 Mar 2012) $
      4            Revision:       $Revision: 29656 $
      5          
      6            Description:    Generic Application (no Profile).
      7          
      8          
      9            Copyright 2004-2012 Texas Instruments Incorporated. All rights reserved.
     10          
     11            IMPORTANT: Your use of this Software is limited to those specific rights
     12            granted under the terms of a software license agreement between the user
     13            who downloaded the software, his/her employer (which must be your employer)
     14            and Texas Instruments Incorporated (the "License"). You may not use this
     15            Software unless you agree to abide by the terms of the License. The License
     16            limits your use, and you acknowledge, that the Software may not be modified,
     17            copied or distributed unless embedded on a Texas Instruments microcontroller
     18            or used solely and exclusively in conjunction with a Texas Instruments radio
     19            frequency transceiver, which is integrated into your product. Other than for
     20            the foregoing purpose, you may not use, reproduce, copy, prepare derivative
     21            works of, modify, distribute, perform, display or sell this Software and/or
     22            its documentation for any purpose.
     23          
     24            YOU FURTHER ACKNOWLEDGE AND AGREE THAT THE SOFTWARE AND DOCUMENTATION ARE
     25            PROVIDED “AS IS?WITHOUT WARRANTY OF ANY KIND, EITHER EXPRESS OR IMPLIED,
     26            INCLUDING WITHOUT LIMITATION, ANY WARRANTY OF MERCHANTABILITY, TITLE,
     27            NON-INFRINGEMENT AND FITNESS FOR A PARTICULAR PURPOSE. IN NO EVENT SHALL
     28            TEXAS INSTRUMENTS OR ITS LICENSORS BE LIABLE OR OBLIGATED UNDER CONTRACT,
     29            NEGLIGENCE, STRICT LIABILITY, CONTRIBUTION, BREACH OF WARRANTY, OR OTHER
     30            LEGAL EQUITABLE THEORY ANY DIRECT OR INDIRECT DAMAGES OR EXPENSES
     31            INCLUDING BUT NOT LIMITED TO ANY INCIDENTAL, SPECIAL, INDIRECT, PUNITIVE
     32            OR CONSEQUENTIAL DAMAGES, LOST PROFITS OR LOST DATA, COST OF PROCUREMENT
     33            OF SUBSTITUTE GOODS, TECHNOLOGY, SERVICES, OR ANY CLAIMS BY THIRD PARTIES
     34            (INCLUDING BUT NOT LIMITED TO ANY DEFENSE THEREOF), OR OTHER SIMILAR COSTS.
     35          
     36            Should you have any questions regarding your right to use this Software,
     37            contact Texas Instruments Incorporated at www.TI.com.
     38          ******************************************************************************/
     39          
     40          /*********************************************************************
     41            This application isn't intended to do anything useful, it is
     42            intended to be a simple example of an application's structure.
     43          
     44            This application sends "Hello World" to another "Generic"
     45            application every 5 seconds.  The application will also
     46            receives "Hello World" packets.
     47          
     48            The "Hello World" messages are sent/received as MSG type message.
     49          
     50            This applications doesn't have a profile, so it handles everything
     51            directly - itself.
     52          
     53            Key control:
     54              SW1:
     55              SW2:  initiates end device binding
     56              SW3:
     57              SW4:  initiates a match description request
     58          *********************************************************************/
     59          
     60          /*********************************************************************
     61           * INCLUDES
     62           */
     63          #include "OSAL.h"
     64          #include "AF.h"
     65          #include "ZDApp.h"
     66          #include "ZDObject.h"
     67          #include "ZDProfile.h"
     68          
     69          #include "Gps.h"
     70          #include "DebugTrace.h"
     71          
     72          #if !defined( WIN32 )
     73            #include "OnBoard.h"

   \                                 In  segment SFR_AN, at 0x90
   \   union <unnamed> volatile __sfr _A_P1
   \                     _A_P1:
   \   000000                DS 1
     74          #endif
     75          #include "MT.h"
     76          #include "mt_uart.h"
     77          /* HAL */
     78          #include "hal_lcd.h"
     79          #include "hal_led.h"
     80          #include "hal_key.h"
     81          #include "hal_uart.h"
     82          
     83          /* RTOS */
     84          #if defined( IAR_ARMCM3_LM )
     85          #include "RTOS_App.h"
     86          #endif  
     87          #include<ioCC2530.h>
     88          #include <string.h>
     89          #define uint unsigned int
     90          #define uchar unsigned char
     91          /*********************************************************************
     92           * MACROS
     93           */
     94          /*********************************************************************
     95           * DATA
     96           */
     97          //char Recdata1[128]="CHENGDU JIAJIE TECH.INC";
     98          //char Recdata2[128]="CHENGDU JIAJIE TECH.INC";

   \                                 In  segment XDATA_I, align 1, keep-with-next
     99          uchar Recdata[300]="CHENGDU JIAJIE TECH.INC";
   \                     Recdata:
   \   000000                DS 300
   \   00012C                REQUIRE `?<Initializer for Recdata>`
   \   00012C                REQUIRE __INIT_XDATA_I

   \                                 In  segment XDATA_I, align 1, keep-with-next
    100          uchar Recdata_GPGGA[70]="CHENGDU JIAJIE TECH.INC";
   \                     Recdata_GPGGA:
   \   000000                DS 70
   \   000046                REQUIRE `?<Initializer for Recdata_GPGGA>`
   \   000046                REQUIRE __INIT_XDATA_I

   \                                 In  segment XDATA_Z, align 1, keep-with-next
    101          uint Recdata_GPGGA_start=0;
   \                     Recdata_GPGGA_start:
   \   000000                DS 2
   \   000002                REQUIRE __INIT_XDATA_Z

   \                                 In  segment XDATA_I, align 1, keep-with-next
    102          uchar Recdata_GPGSV[70]="CHENGDU JIAJIE TECH.INC";
   \                     Recdata_GPGSV:
   \   000000                DS 70
   \   000046                REQUIRE `?<Initializer for Recdata_GPGSV>`
   \   000046                REQUIRE __INIT_XDATA_I

   \                                 In  segment XDATA_Z, align 1, keep-with-next
    103          uint Recdata_GPGSV_start=0;
   \                     Recdata_GPGSV_start:
   \   000000                DS 2
   \   000002                REQUIRE __INIT_XDATA_Z

   \                                 In  segment XDATA_I, align 1, keep-with-next
    104          uchar Recdata_GPGSA[70]="CHENGDU JIAJIE TECH.INC";
   \                     Recdata_GPGSA:
   \   000000                DS 70
   \   000046                REQUIRE `?<Initializer for Recdata_GPGSA>`
   \   000046                REQUIRE __INIT_XDATA_I

   \                                 In  segment XDATA_Z, align 1, keep-with-next
    105          uint Recdata_GPGSA_start=0;
   \                     Recdata_GPGSA_start:
   \   000000                DS 2
   \   000002                REQUIRE __INIT_XDATA_Z

   \                                 In  segment XDATA_I, align 1, keep-with-next
    106          uchar Recdata_GPRMC[70]="CHENGDU JIAJIE TECH.INC";
   \                     Recdata_GPRMC:
   \   000000                DS 70
   \   000046                REQUIRE `?<Initializer for Recdata_GPRMC>`
   \   000046                REQUIRE __INIT_XDATA_I

   \                                 In  segment XDATA_Z, align 1, keep-with-next
    107          uint Recdata_GPRMC_start=0;
   \                     Recdata_GPRMC_start:
   \   000000                DS 2
   \   000002                REQUIRE __INIT_XDATA_Z

   \                                 In  segment XDATA_I, align 1, keep-with-next
    108          uchar Recdata_GPVTG[70]="CHENGDU JIAJIE TECH.INC";
   \                     Recdata_GPVTG:
   \   000000                DS 70
   \   000046                REQUIRE `?<Initializer for Recdata_GPVTG>`
   \   000046                REQUIRE __INIT_XDATA_I

   \                                 In  segment XDATA_Z, align 1, keep-with-next
    109          uint Recdata_GPVTG_start=0;
   \                     Recdata_GPVTG_start:
   \   000000                DS 2
   \   000002                REQUIRE __INIT_XDATA_Z

   \                                 In  segment XDATA_I, align 1, keep-with-next
    110          uchar UTC[6]="000000";
   \                     UTC:
   \   000000                DS 6
   \   000006                REQUIRE `?<Initializer for UTC>`
   \   000006                REQUIRE __INIT_XDATA_I

   \                                 In  segment XDATA_I, align 1, keep-with-next
    111          uchar JingDu[10]="0000000000";
   \                     JingDu:
   \   000000                DS 10
   \   00000A                REQUIRE `?<Initializer for JingDu>`
   \   00000A                REQUIRE __INIT_XDATA_I

   \                                 In  segment XDATA_I, align 1, keep-with-next
    112          uchar WeiDu[9]="000000000";
   \                     WeiDu:
   \   000000                DS 9
   \   000009                REQUIRE `?<Initializer for WeiDu>`
   \   000009                REQUIRE __INIT_XDATA_I

   \                                 In  segment XDATA_I, align 1, keep-with-next
    113          uchar GaoDu[5]="00000";
   \                     GaoDu:
   \   000000                DS 5
   \   000005                REQUIRE `?<Initializer for GaoDu>`
   \   000005                REQUIRE __INIT_XDATA_I

   \                                 In  segment XDATA_I, align 1, keep-with-next
    114          uchar WeiXing[2]="00";
   \                     WeiXing:
   \   000000                DS 2
   \   000002                REQUIRE `?<Initializer for WeiXing>`
   \   000002                REQUIRE __INIT_XDATA_I

   \                                 In  segment XDATA_I, align 1, keep-with-next
    115          uchar JiBie[1]="y";
   \                     JiBie:
   \   000000                DS 1
   \   000001                REQUIRE `?<Initializer for JiBie>`
   \   000001                REQUIRE __INIT_XDATA_I

   \                                 In  segment XDATA_I, align 1, keep-with-next
    116          uchar RXTXflag = 1;
   \                     RXTXflag:
   \   000000                DS 1
   \   000001                REQUIRE `?<Initializer for RXTXflag>`
   \   000001                REQUIRE __INIT_XDATA_I

   \                                 In  segment XDATA_Z, align 1, keep-with-next
    117          uchar temp;
   \                     temp:
   \   000000                DS 1
   \   000001                REQUIRE __INIT_XDATA_Z

   \                                 In  segment XDATA_Z, align 1, keep-with-next
    118          uint  datanumber = 0;
   \                     datanumber:
   \   000000                DS 2
   \   000002                REQUIRE __INIT_XDATA_Z

   \                                 In  segment XDATA_Z, align 1, keep-with-next
    119          uint  stringlen;
   \                     stringlen:
   \   000000                DS 2
   \   000002                REQUIRE __INIT_XDATA_Z

   \                                 In  segment XDATA_Z, align 1, keep-with-next
    120          uint check=0;
   \                     check:
   \   000000                DS 2
   \   000002                REQUIRE __INIT_XDATA_Z

   \                                 In  segment XDATA_I, align 1, keep-with-next
    121          uint position=6;
   \                     position:
   \   000000                DS 2
   \   000002                REQUIRE `?<Initializer for position>`
   \   000002                REQUIRE __INIT_XDATA_I
    122          /*********************************************************************
    123           * CONSTANTS
    124           */
    125          
    126          /*********************************************************************
    127           * TYPEDEFS
    128           */
    129          
    130          /*********************************************************************
    131           * GLOBAL VARIABLES
    132           */
    133          // This list should be filled with Application specific Cluster IDs.
    134          #define SEND_DATA_EVENT 0x01

   \                                 In  segment XDATA_I, align 1, keep-with-next
    135          unsigned char flag='0';
   \                     flag:
   \   000000                DS 1
   \   000001                REQUIRE `?<Initializer for flag>`
   \   000001                REQUIRE __INIT_XDATA_I

   \                                 In  segment XDATA_ROM_C, align 1
    136          const cId_t Gps_ClusterList[Gps_MAX_CLUSTERS] =
   \                     Gps_ClusterList:
   \   000000   0400         DW 4
    137          {
    138            Gps_CLUSTERID
    139          };
    140          
    141          
    142          

   \                                 In  segment XDATA_ROM_C, align 1
    143          const SimpleDescriptionFormat_t Gps_SimpleDesc =
   \                     Gps_SimpleDesc:
   \   000000   0A           DB 10
   \   000001   040F         DW 3844
   \   000003   0100         DW 1
   \   000005   00           DB 0
   \   000006   00           DB 0
   \   000007   0000         DW 0H
   \   000009   01           DB 1
   \   00000A   ....         DW Gps_ClusterList
    144          {
    145            Gps_ENDPOINT,              //  int Endpoint;
    146            Gps_PROFID,                //  uint16 AppProfId[2];
    147            Gps_DEVICEID,              //  uint16 AppDeviceId[2];
    148            Gps_DEVICE_VERSION,        //  int   AppDevVer:4;
    149            Gps_FLAGS,                 //  int   AppFlags:4;
    150            
    151            
    152            0,          //  byte  AppNumInClusters;
    153            (cId_t *)NULL,  //  byte *pAppInClusterList;
    154            Gps_MAX_CLUSTERS,          //  byte  AppNumInClusters;
    155            (cId_t *)Gps_ClusterList   //  byte *pAppInClusterList;
    156          };
    157          

   \                                 In  segment XDATA_Z, align 1, keep-with-next
    158          unsigned char TempDATA;
   \                     TempDATA:
   \   000000                DS 1
   \   000001                REQUIRE __INIT_XDATA_Z

   \                                 In  segment XDATA_Z, align 1, keep-with-next
    159          endPointDesc_t Gps_epDesc;
   \                     Gps_epDesc:
   \   000000                DS 6
   \   000006                REQUIRE __INIT_XDATA_Z

   \                                 In  segment XDATA_Z, align 1, keep-with-next
    160          byte Gps_TaskID;
   \                     Gps_TaskID:
   \   000000                DS 1
   \   000001                REQUIRE __INIT_XDATA_Z

   \                                 In  segment XDATA_Z, align 1, keep-with-next
    161          byte Gps_TransID;
   \                     Gps_TransID:
   \   000000                DS 1
   \   000001                REQUIRE __INIT_XDATA_Z

   \                                 In  segment XDATA_Z, align 1, keep-with-next
    162          devStates_t Gps_NwkState;
   \                     Gps_NwkState:
   \   000000                DS 1
   \   000001                REQUIRE __INIT_XDATA_Z

   \                                 In  segment XDATA_Z, align 1, keep-with-next
    163          byte Gps_Uart_TaskID;
   \                     Gps_Uart_TaskID:
   \   000000                DS 1
   \   000001                REQUIRE __INIT_XDATA_Z

   \                                 In  segment XDATA_Z, align 1, keep-with-next
    164          byte Gps_Uart_TransID;
   \                     Gps_Uart_TransID:
   \   000000                DS 1
   \   000001                REQUIRE __INIT_XDATA_Z
    165          void Gps_MessageMSGCB(afIncomingMSGPacket_t *MSGpkt);
    166          void Gps_SendTheMessage(void);
    167          void handle();
    168          
    169          
    170          

   \                                 In  segment BANKED_CODE, align 1, keep-with-next
    171          void Gps_Init( byte task_id )
   \                     Gps_Init:
    172          {
   \   000000   74F7         MOV     A,#-0x9
   \   000002   12....       LCALL   ?BANKED_ENTER_XDATA
   \   000005                ; Saved register size: 9
   \   000005                ; Auto size: 29
   \   000005   74E3         MOV     A,#-0x1d
   \   000007   12....       LCALL   ?ALLOC_XSTACK8
   \   00000A   E9           MOV     A,R1
   \   00000B   FE           MOV     R6,A
    173            halUARTCfg_t uartConfig;//´®¿Ú
    174              
    175            Gps_TaskID = task_id;
   \   00000C   90....       MOV     DPTR,#Gps_TaskID
   \   00000F   F0           MOVX    @DPTR,A
    176            Gps_NwkState=DEV_INIT;
   \   000010   90....       MOV     DPTR,#Gps_NwkState
   \   000013   7401         MOV     A,#0x1
   \   000015   F0           MOVX    @DPTR,A
    177            Gps_TransID = 0;
   \   000016   90....       MOV     DPTR,#Gps_TransID
   \   000019   E4           CLR     A
   \   00001A   F0           MOVX    @DPTR,A
    178          
    179            MT_UartInit();
   \   00001B                ; Setup parameters for call to function MT_UartInit
   \   00001B   12....       LCALL   ??MT_UartInit?relay
    180            //initUARTSEND();
    181            MT_UartRegisterTaskID(task_id);
   \   00001E                ; Setup parameters for call to function MT_UartRegisterTaskID
   \   00001E   EE           MOV     A,R6
   \   00001F   F9           MOV     R1,A
   \   000020   12....       LCALL   ??MT_UartRegisterTaskID?relay
    182            
    183            Gps_epDesc.endPoint = Gps_ENDPOINT;
   \   000023   90....       MOV     DPTR,#Gps_epDesc
   \   000026   740A         MOV     A,#0xa
   \   000028   F0           MOVX    @DPTR,A
    184            Gps_epDesc.task_id = &Gps_TaskID;
   \   000029   A3           INC     DPTR
   \   00002A   74..         MOV     A,#Gps_TaskID & 0xff
   \   00002C   F0           MOVX    @DPTR,A
   \   00002D   A3           INC     DPTR
   \   00002E   74..         MOV     A,#(Gps_TaskID >> 8) & 0xff
   \   000030   F0           MOVX    @DPTR,A
    185            Gps_epDesc.simpleDesc
    186                      = (SimpleDescriptionFormat_t *)&Gps_SimpleDesc;
   \   000031   A3           INC     DPTR
   \   000032   74..         MOV     A,#Gps_SimpleDesc & 0xff
   \   000034   F0           MOVX    @DPTR,A
   \   000035   A3           INC     DPTR
   \   000036   74..         MOV     A,#(Gps_SimpleDesc >> 8) & 0xff
   \   000038   F0           MOVX    @DPTR,A
    187            
    188            Gps_epDesc.latencyReq = noLatencyReqs;
   \   000039   A3           INC     DPTR
   \   00003A   E4           CLR     A
   \   00003B   F0           MOVX    @DPTR,A
    189            afRegister( &Gps_epDesc ); 
   \   00003C                ; Setup parameters for call to function afRegister
   \   00003C   7A..         MOV     R2,#Gps_epDesc & 0xff
   \   00003E   7B..         MOV     R3,#(Gps_epDesc >> 8) & 0xff
   \   000040   12....       LCALL   ??afRegister?relay
    190            uartConfig.configured = TRUE;
   \   000043   85..82       MOV     DPL,?XSP + 0
   \   000046   85..83       MOV     DPH,?XSP + 1
   \   000049   7401         MOV     A,#0x1
   \   00004B   F0           MOVX    @DPTR,A
    191            uartConfig.baudRate = HAL_UART_BR_9600;
   \   00004C   12....       LCALL   ?XSTACK_DISP0_8
   \   00004F   E4           CLR     A
   \   000050   F0           MOVX    @DPTR,A
    192            uartConfig.flowControl = FALSE;
   \   000051   7402         MOV     A,#0x2
   \   000053   12....       LCALL   ?XSTACK_DISP0_8
   \   000056   E4           CLR     A
   \   000057   F0           MOVX    @DPTR,A
    193            //uartConfig.callBackFunc         = rxCB;
    194            HalUARTOpen(0,&uartConfig);
   \   000058                ; Setup parameters for call to function HalUARTOpen
   \   000058   85..82       MOV     DPL,?XSP + 0
   \   00005B   85..83       MOV     DPH,?XSP + 1
   \   00005E   AA82         MOV     R2,DPL
   \   000060   AB83         MOV     R3,DPH
   \   000062   F9           MOV     R1,A
   \   000063   12....       LCALL   ??HalUARTOpen?relay
    195          
    196          }
   \   000066   741D         MOV     A,#0x1d
   \   000068   12....       LCALL   ?DEALLOC_XSTACK8
   \   00006B                REQUIRE ?Subroutine0
   \   00006B                ; // Fall through to label ?Subroutine0

   \                                 In  segment BANKED_CODE, align 1, keep-with-next
   \                     ?Subroutine0:
   \   000000   7F01         MOV     R7,#0x1
   \   000002   02....       LJMP    ?BANKED_LEAVE_XDATA
    197          

   \                                 In  segment BANKED_CODE, align 1, keep-with-next
    198          UINT16 Gps_ProcessEvent( byte task_id, UINT16 events )
   \                     Gps_ProcessEvent:
    199          {
   \   000000   74F4         MOV     A,#-0xc
   \   000002   12....       LCALL   ?BANKED_ENTER_XDATA
   \   000005                ; Saved register size: 12
   \   000005                ; Auto size: 0
   \   000005   EA           MOV     A,R2
   \   000006   FE           MOV     R6,A
   \   000007   EB           MOV     A,R3
   \   000008   FF           MOV     R7,A
    200            afIncomingMSGPacket_t *MSGpkt;
    201          
    202            if ( events & SYS_EVENT_MSG )
   \   000009   5480         ANL     A,#0x80
   \   00000B   604E         JZ      ??Gps_ProcessEvent_0
    203            {
    204              MSGpkt = (afIncomingMSGPacket_t *)osal_msg_receive( Gps_TaskID );
   \   00000D                ; Setup parameters for call to function osal_msg_receive
   \   00000D   8032         SJMP    ??Gps_ProcessEvent_1
    205              while ( MSGpkt )
    206              {
    207                switch ( MSGpkt->hdr.event )
   \                     ??Gps_ProcessEvent_2:
   \   00000F   85..82       MOV     DPL,?V0 + 0
   \   000012   85..83       MOV     DPH,?V0 + 1
   \   000015   E0           MOVX    A,@DPTR
   \   000016   64D1         XRL     A,#0xd1
   \   000018   7020         JNZ     ??Gps_ProcessEvent_3
    208                {
    209                 
    210                    case ZDO_STATE_CHANGE:
    211                      Gps_NwkState = (devStates_t)(MSGpkt->hdr.status);
   \   00001A   A3           INC     DPTR
   \   00001B   E0           MOVX    A,@DPTR
   \   00001C   90....       MOV     DPTR,#Gps_NwkState
   \   00001F   F0           MOVX    @DPTR,A
    212                      if(Gps_NwkState==DEV_END_DEVICE)
   \   000020   6406         XRL     A,#0x6
   \   000022   7016         JNZ     ??Gps_ProcessEvent_3
    213                      {
    214                        P1_0=~P1_0;
   \   000024   D2F0         SETB    B.0
   \   000026   A290         MOV     C,0x90.0
   \   000028   30F001       JNB     B.0,??Gps_ProcessEvent_4
   \   00002B   B3           CPL     C
   \                     ??Gps_ProcessEvent_4:
   \   00002C   9290         MOV     0x90.0,C
    215                        osal_set_event(Gps_TaskID,SEND_DATA_EVENT);
   \   00002E                ; Setup parameters for call to function osal_set_event
   \   00002E   7A01         MOV     R2,#0x1
   \   000030   7B00         MOV     R3,#0x0
   \   000032   90....       MOV     DPTR,#Gps_TaskID
   \   000035   E0           MOVX    A,@DPTR
   \   000036   F9           MOV     R1,A
   \   000037   12....       LCALL   ??osal_set_event?relay
    216                      }
    217                      break;
    218                      
    219                    default:
    220                      break;
    221                }
    222                osal_msg_deallocate( (uint8 *)MSGpkt );
   \                     ??Gps_ProcessEvent_3:
   \   00003A                ; Setup parameters for call to function osal_msg_deallocate
   \   00003A   AA..         MOV     R2,?V0 + 0
   \   00003C   AB..         MOV     R3,?V0 + 1
   \   00003E   12....       LCALL   ??osal_msg_deallocate?relay
    223                MSGpkt = (afIncomingMSGPacket_t *)osal_msg_receive( Gps_TaskID );
   \   000041                ; Setup parameters for call to function osal_msg_receive
   \                     ??Gps_ProcessEvent_1:
   \   000041   90....       MOV     DPTR,#Gps_TaskID
   \   000044   E0           MOVX    A,@DPTR
   \   000045   F9           MOV     R1,A
   \   000046   12....       LCALL   ??osal_msg_receive?relay
   \   000049   8A..         MOV     ?V0 + 0,R2
   \   00004B   8B..         MOV     ?V0 + 1,R3
    224              }
   \   00004D   E5..         MOV     A,?V0 + 0
   \   00004F   45..         ORL     A,?V0 + 1
   \   000051   70BC         JNZ     ??Gps_ProcessEvent_2
    225              // return unprocessed events
    226              return (events ^ SYS_EVENT_MSG);
   \   000053   EE           MOV     A,R6
   \   000054   FA           MOV     R2,A
   \   000055   EF           MOV     A,R7
   \   000056   6480         XRL     A,#0x80
   \                     ??Gps_ProcessEvent_5:
   \   000058   FB           MOV     R3,A
   \   000059   801C         SJMP    ??Gps_ProcessEvent_6
    227            }
    228            if(events&SEND_DATA_EVENT)
   \                     ??Gps_ProcessEvent_0:
   \   00005B   EE           MOV     A,R6
   \   00005C   A2E0         MOV     C,0xE0 /* A   */.0
   \   00005E   5013         JNC     ??Gps_ProcessEvent_7
    229            {
    230              //HalUARTRead(0, Recdata, 300);
    231              //HalUARTRead(0, Recdata2, 128);
    232              /*for(uint i=0;i<128;i++)
    233                Recdata[i]=Recdata1[i];
    234              for(uint i=0;i<128;i++)
    235                Recdata[i+128]=Recdata2[i];*/
    236              //handle();
    237              Gps_SendTheMessage();
   \   000060                ; Setup parameters for call to function Gps_SendTheMessage
   \   000060   12....       LCALL   ??Gps_SendTheMessage?relay
    238              osal_start_timerEx(Gps_TaskID,SEND_DATA_EVENT,Gps_SEND_MSG_TIMEOUT);
   \   000063                ; Setup parameters for call to function osal_start_timerEx
   \   000063   7C94         MOV     R4,#-0x6c
   \   000065   7D11         MOV     R5,#0x11
   \   000067   7A01         MOV     R2,#0x1
   \   000069   7B00         MOV     R3,#0x0
   \   00006B   90....       MOV     DPTR,#Gps_TaskID
   \   00006E   12....       LCALL   ?Subroutine14 & 0xFFFF
    239              return(events^SEND_DATA_EVENT);
    240            }
   \                     ??CrossCallReturnLabel_43:
   \   000071   80E5         SJMP    ??Gps_ProcessEvent_5
    241            return 0;
   \                     ??Gps_ProcessEvent_7:
   \   000073   7A00         MOV     R2,#0x0
   \   000075   7B00         MOV     R3,#0x0
   \                     ??Gps_ProcessEvent_6:
   \   000077   7F04         MOV     R7,#0x4
   \   000079   02....       LJMP    ?BANKED_LEAVE_XDATA
   \   00007C                REQUIRE _A_P1
    242          }

   \                                 In  segment BANKED_CODE, align 1, keep-with-next
   \                     ?Subroutine14:
   \   000000   E0           MOVX    A,@DPTR
   \   000001   F9           MOV     R1,A
   \   000002   12....       LCALL   ??osal_start_timerEx?relay
   \   000005   EE           MOV     A,R6
   \   000006   6401         XRL     A,#0x1
   \   000008   FA           MOV     R2,A
   \   000009   EF           MOV     A,R7
   \   00000A   22           RET
    243          

   \                                 In  segment BANKED_CODE, align 1, keep-with-next
    244          void Gps_SendTheMessage(void)
   \                     Gps_SendTheMessage:
    245          { 
   \   000000   74F6         MOV     A,#-0xa
   \   000002   12....       LCALL   ?BANKED_ENTER_XDATA
   \   000005                ; Saved register size: 10
   \   000005                ; Auto size: 45
   \   000005   74D3         MOV     A,#-0x2d
   \   000007   12....       LCALL   ?ALLOC_XSTACK8
    246            unsigned char theMessageData[33] = "Gps:";
   \   00000A   740C         MOV     A,#0xc
   \   00000C   12....       LCALL   ?XSTACK_DISP0_8
   \   00000F   AC82         MOV     R4,DPL
   \   000011   AD83         MOV     R5,DPH
   \   000013   7583..       MOV     DPH,#(`?<Constant "Gps:">` >> 8) & 0xff
   \   000016   7582..       MOV     DPL,#`?<Constant "Gps:">` & 0xff
   \   000019   7421         MOV     A,#0x21
   \   00001B   12....       LCALL   ?MOVE_LONG8_XDATA_XDATA
    247            for (unsigned char i=0;i<6;i++)
   \   00001E   FA           MOV     R2,A
    248              theMessageData[i]=UTC[i];
   \                     ??Gps_SendTheMessage_0:
   \   00001F   8A82         MOV     DPL,R2
   \   000021   A882         MOV     R0,DPL
   \   000023   74..         MOV     A,#UTC & 0xff
   \   000025   28           ADD     A,R0
   \   000026   F582         MOV     DPL,A
   \   000028   74..         MOV     A,#(UTC >> 8) & 0xff
   \   00002A   12....       LCALL   ?Subroutine19 & 0xFFFF
   \                     ??CrossCallReturnLabel_50:
   \   00002D   C0E0         PUSH    A
   \   00002F   740C         MOV     A,#0xc
   \   000031   12....       LCALL   ?XSTACK_DISP0_8
   \   000034   12....       LCALL   ?Subroutine20 & 0xFFFF
   \                     ??CrossCallReturnLabel_55:
   \   000037   D0E0         POP     A
   \   000039   F0           MOVX    @DPTR,A
   \   00003A   0A           INC     R2
   \   00003B   EA           MOV     A,R2
   \   00003C   C3           CLR     C
   \   00003D   9406         SUBB    A,#0x6
   \   00003F   40DE         JC      ??Gps_SendTheMessage_0
    249            for (unsigned char i=0;i<9;i++)
   \   000041   7A00         MOV     R2,#0x0
    250              theMessageData[i+6]=WeiDu[i];
   \                     ??Gps_SendTheMessage_1:
   \   000043   8A82         MOV     DPL,R2
   \   000045   A882         MOV     R0,DPL
   \   000047   74..         MOV     A,#WeiDu & 0xff
   \   000049   28           ADD     A,R0
   \   00004A   F582         MOV     DPL,A
   \   00004C   74..         MOV     A,#(WeiDu >> 8) & 0xff
   \   00004E   12....       LCALL   ?Subroutine19 & 0xFFFF
   \                     ??CrossCallReturnLabel_51:
   \   000051   C0E0         PUSH    A
   \   000053   740C         MOV     A,#0xc
   \   000055   12....       LCALL   ?XSTACK_DISP0_8
   \   000058   12....       LCALL   ?Subroutine20 & 0xFFFF
   \                     ??CrossCallReturnLabel_56:
   \   00005B   A3           INC     DPTR
   \   00005C   A3           INC     DPTR
   \   00005D   A3           INC     DPTR
   \   00005E   A3           INC     DPTR
   \   00005F   A3           INC     DPTR
   \   000060   A3           INC     DPTR
   \   000061   D0E0         POP     A
   \   000063   F0           MOVX    @DPTR,A
   \   000064   0A           INC     R2
   \   000065   EA           MOV     A,R2
   \   000066   C3           CLR     C
   \   000067   9409         SUBB    A,#0x9
   \   000069   40D8         JC      ??Gps_SendTheMessage_1
    251            for (unsigned char i=0;i<10;i++)
   \   00006B   7A00         MOV     R2,#0x0
    252              theMessageData[i+15]=JingDu[i];
   \                     ??Gps_SendTheMessage_2:
   \   00006D   8A82         MOV     DPL,R2
   \   00006F   A882         MOV     R0,DPL
   \   000071   74..         MOV     A,#JingDu & 0xff
   \   000073   28           ADD     A,R0
   \   000074   F582         MOV     DPL,A
   \   000076   74..         MOV     A,#(JingDu >> 8) & 0xff
   \   000078   12....       LCALL   ?Subroutine19 & 0xFFFF
   \                     ??CrossCallReturnLabel_52:
   \   00007B   C0E0         PUSH    A
   \   00007D   740C         MOV     A,#0xc
   \   00007F   12....       LCALL   ?XSTACK_DISP0_8
   \   000082   12....       LCALL   ?Subroutine18 & 0xFFFF
   \                     ??CrossCallReturnLabel_47:
   \   000085   240F         ADD     A,#0xf
   \   000087   F582         MOV     DPL,A
   \   000089   E9           MOV     A,R1
   \   00008A   3400         ADDC    A,#0x0
   \   00008C   F583         MOV     DPH,A
   \   00008E   D0E0         POP     A
   \   000090   F0           MOVX    @DPTR,A
   \   000091   0A           INC     R2
   \   000092   EA           MOV     A,R2
   \   000093   C3           CLR     C
   \   000094   940A         SUBB    A,#0xa
   \   000096   40D5         JC      ??Gps_SendTheMessage_2
    253            for (unsigned char i=0;i<1;i++)
    254              theMessageData[i+25]=JiBie[i];
   \   000098   90....       MOV     DPTR,#JiBie
   \   00009B   E0           MOVX    A,@DPTR
   \   00009C   C0E0         PUSH    A
   \   00009E   7425         MOV     A,#0x25
   \   0000A0   12....       LCALL   ?XSTACK_DISP0_8
   \   0000A3   D0E0         POP     A
   \   0000A5   F0           MOVX    @DPTR,A
    255            for (unsigned char i=0;i<2;i++)
   \   0000A6   7A00         MOV     R2,#0x0
    256              theMessageData[i+26]=WeiXing[i];
   \                     ??Gps_SendTheMessage_3:
   \   0000A8   8A82         MOV     DPL,R2
   \   0000AA   A882         MOV     R0,DPL
   \   0000AC   74..         MOV     A,#WeiXing & 0xff
   \   0000AE   28           ADD     A,R0
   \   0000AF   F582         MOV     DPL,A
   \   0000B1   74..         MOV     A,#(WeiXing >> 8) & 0xff
   \   0000B3   12....       LCALL   ?Subroutine19 & 0xFFFF
   \                     ??CrossCallReturnLabel_53:
   \   0000B6   C0E0         PUSH    A
   \   0000B8   740C         MOV     A,#0xc
   \   0000BA   12....       LCALL   ?XSTACK_DISP0_8
   \   0000BD   12....       LCALL   ?Subroutine18 & 0xFFFF
   \                     ??CrossCallReturnLabel_48:
   \   0000C0   241A         ADD     A,#0x1a
   \   0000C2   F582         MOV     DPL,A
   \   0000C4   E9           MOV     A,R1
   \   0000C5   3400         ADDC    A,#0x0
   \   0000C7   F583         MOV     DPH,A
   \   0000C9   D0E0         POP     A
   \   0000CB   F0           MOVX    @DPTR,A
   \   0000CC   0A           INC     R2
   \   0000CD   EA           MOV     A,R2
   \   0000CE   C3           CLR     C
   \   0000CF   9402         SUBB    A,#0x2
   \   0000D1   40D5         JC      ??Gps_SendTheMessage_3
    257            for (unsigned char i=0;i<5;i++)
   \   0000D3   7A00         MOV     R2,#0x0
    258              theMessageData[i+28]=GaoDu[i];
   \                     ??Gps_SendTheMessage_4:
   \   0000D5   8A82         MOV     DPL,R2
   \   0000D7   A882         MOV     R0,DPL
   \   0000D9   74..         MOV     A,#GaoDu & 0xff
   \   0000DB   28           ADD     A,R0
   \   0000DC   F582         MOV     DPL,A
   \   0000DE   74..         MOV     A,#(GaoDu >> 8) & 0xff
   \   0000E0   12....       LCALL   ?Subroutine19 & 0xFFFF
   \                     ??CrossCallReturnLabel_54:
   \   0000E3   C0E0         PUSH    A
   \   0000E5   740C         MOV     A,#0xc
   \   0000E7   12....       LCALL   ?XSTACK_DISP0_8
   \   0000EA   12....       LCALL   ?Subroutine18 & 0xFFFF
   \                     ??CrossCallReturnLabel_49:
   \   0000ED   241C         ADD     A,#0x1c
   \   0000EF   F582         MOV     DPL,A
   \   0000F1   E9           MOV     A,R1
   \   0000F2   3400         ADDC    A,#0x0
   \   0000F4   F583         MOV     DPH,A
   \   0000F6   D0E0         POP     A
   \   0000F8   F0           MOVX    @DPTR,A
   \   0000F9   0A           INC     R2
   \   0000FA   EA           MOV     A,R2
   \   0000FB   C3           CLR     C
   \   0000FC   9405         SUBB    A,#0x5
   \   0000FE   40D5         JC      ??Gps_SendTheMessage_4
    259          
    260            afAddrType_t my_DstAddr;
    261          
    262            my_DstAddr.addrMode=(afAddrMode_t)Addr16Bit;
   \   000100   7408         MOV     A,#0x8
   \   000102   12....       LCALL   ?XSTACK_DISP0_8
   \   000105   7402         MOV     A,#0x2
   \   000107   F0           MOVX    @DPTR,A
    263            my_DstAddr.endPoint=Gps_ENDPOINT;
   \   000108   7409         MOV     A,#0x9
   \   00010A   12....       LCALL   ?XSTACK_DISP0_8
   \   00010D   740A         MOV     A,#0xa
   \   00010F   F0           MOVX    @DPTR,A
    264            my_DstAddr.addr.shortAddr=0x0000; 
   \   000110   85..82       MOV     DPL,?XSP + 0
   \   000113   85..83       MOV     DPH,?XSP + 1
   \   000116   E4           CLR     A
   \   000117   F0           MOVX    @DPTR,A
   \   000118   A3           INC     DPTR
   \   000119   F0           MOVX    @DPTR,A
    265          
    266          
    267            //theMessageData[0]=flag;
    268          
    269            AF_DataRequest(&my_DstAddr
    270            ,&Gps_epDesc
    271            ,Gps_CLUSTERID
    272            ,33
    273            ,theMessageData
    274            ,&Gps_TransID
    275            ,AF_DISCV_ROUTE
    276            ,AF_DEFAULT_RADIUS);
   \   00011A                ; Setup parameters for call to function AF_DataRequest
   \   00011A   75..1E       MOV     ?V0 + 0,#0x1e
   \   00011D   78..         MOV     R0,#?V0 + 0
   \   00011F   12....       LCALL   ?PUSH_XSTACK_I_ONE
   \   000122   75....       MOV     ?V0 + 0,#Gps_TransID & 0xff
   \   000125   75....       MOV     ?V0 + 1,#(Gps_TransID >> 8) & 0xff
   \   000128   78..         MOV     R0,#?V0 + 0
   \   00012A   12....       LCALL   ?PUSH_XSTACK_I_TWO
   \   00012D   740F         MOV     A,#0xf
   \   00012F   12....       LCALL   ?XSTACK_DISP0_8
   \   000132   8582..       MOV     ?V0 + 0,DPL
   \   000135   8583..       MOV     ?V0 + 1,DPH
   \   000138   78..         MOV     R0,#?V0 + 0
   \   00013A   12....       LCALL   ?PUSH_XSTACK_I_TWO
   \   00013D   75..21       MOV     ?V0 + 0,#0x21
   \   000140   75..00       MOV     ?V0 + 1,#0x0
   \   000143   78..         MOV     R0,#?V0 + 0
   \   000145   12....       LCALL   ?PUSH_XSTACK_I_TWO
   \   000148   75..04       MOV     ?V0 + 0,#0x4
   \   00014B   78..         MOV     R0,#?V0 + 0
   \   00014D   12....       LCALL   ?PUSH_XSTACK_I_TWO
   \   000150   7920         MOV     R1,#0x20
   \   000152   7C..         MOV     R4,#Gps_epDesc & 0xff
   \   000154   7D..         MOV     R5,#(Gps_epDesc >> 8) & 0xff
   \   000156   7409         MOV     A,#0x9
   \   000158   12....       LCALL   ?XSTACK_DISP0_8
   \   00015B   AA82         MOV     R2,DPL
   \   00015D   AB83         MOV     R3,DPH
   \   00015F   12....       LCALL   ??AF_DataRequest?relay
   \   000162   7409         MOV     A,#0x9
   \   000164   12....       LCALL   ?DEALLOC_XSTACK8
    277          }
   \   000167   742D         MOV     A,#0x2d
   \   000169   12....       LCALL   ?DEALLOC_XSTACK8
   \   00016C   7F02         MOV     R7,#0x2
   \   00016E   02....       LJMP    ?BANKED_LEAVE_XDATA

   \                                 In  segment BANKED_CODE, align 1, keep-with-next
   \                     ?Subroutine20:
   \   000000   E582         MOV     A,DPL
   \   000002   28           ADD     A,R0
   \   000003   F582         MOV     DPL,A
   \   000005   E583         MOV     A,DPH
   \   000007   3400         ADDC    A,#0x0
   \   000009   F583         MOV     DPH,A
   \   00000B   22           RET

   \                                 In  segment BANKED_CODE, align 1, keep-with-next
   \                     ?Subroutine19:
   \   000000   3400         ADDC    A,#0x0
   \   000002   F583         MOV     DPH,A
   \   000004   E0           MOVX    A,@DPTR
   \   000005   22           RET

   \                                 In  segment BANKED_CODE, align 1, keep-with-next
   \                     ?Subroutine18:
   \   000000   E582         MOV     A,DPL
   \   000002   28           ADD     A,R0
   \   000003   F8           MOV     R0,A
   \   000004   E583         MOV     A,DPH
   \   000006   3400         ADDC    A,#0x0
   \   000008   F9           MOV     R1,A
   \   000009   E8           MOV     A,R0
   \   00000A   22           RET

   \                                 In  segment BANKED_CODE, align 1, keep-with-next
    278          bool isDigital(unsigned char c)
   \                     isDigital:
    279          {
   \   000000                ; Saved register size: 0
   \   000000                ; Auto size: 0
   \   000000   E9           MOV     A,R1
   \   000001   F8           MOV     R0,A
    280            if(c=='0' || c=='1' ||c=='2' ||c=='3' ||c=='4' ||
    281               c=='5' ||c=='6' ||c=='7' ||c=='8' ||c=='9' || c=='.')
   \   000002   7430         MOV     A,#0x30
   \   000004   68           XRL     A,R0
   \   000005   6032         JZ      ??isDigital_0
   \   000007   7431         MOV     A,#0x31
   \   000009   68           XRL     A,R0
   \   00000A   602D         JZ      ??isDigital_0
   \   00000C   7432         MOV     A,#0x32
   \   00000E   68           XRL     A,R0
   \   00000F   6028         JZ      ??isDigital_0
   \   000011   7433         MOV     A,#0x33
   \   000013   68           XRL     A,R0
   \   000014   6023         JZ      ??isDigital_0
   \   000016   7434         MOV     A,#0x34
   \   000018   68           XRL     A,R0
   \   000019   601E         JZ      ??isDigital_0
   \   00001B   7435         MOV     A,#0x35
   \   00001D   68           XRL     A,R0
   \   00001E   6019         JZ      ??isDigital_0
   \   000020   7436         MOV     A,#0x36
   \   000022   68           XRL     A,R0
   \   000023   6014         JZ      ??isDigital_0
   \   000025   7437         MOV     A,#0x37
   \   000027   68           XRL     A,R0
   \   000028   600F         JZ      ??isDigital_0
   \   00002A   7438         MOV     A,#0x38
   \   00002C   68           XRL     A,R0
   \   00002D   600A         JZ      ??isDigital_0
   \   00002F   7439         MOV     A,#0x39
   \   000031   68           XRL     A,R0
   \   000032   6005         JZ      ??isDigital_0
   \   000034   742E         MOV     A,#0x2e
   \   000036   68           XRL     A,R0
   \   000037   7004         JNZ     ??isDigital_1
    282              return true;
   \                     ??isDigital_0:
   \   000039   7901         MOV     R1,#0x1
   \   00003B   8002         SJMP    ??isDigital_2
    283            else
    284              return false;
   \                     ??isDigital_1:
   \   00003D   7900         MOV     R1,#0x0
   \                     ??isDigital_2:
   \   00003F   02....       LJMP    ?BRET
    285          }

   \                                 In  segment BANKED_CODE, align 1, keep-with-next
    286          void handle()
   \                     handle:
    287          {
   \   000000   C082         PUSH    DPL
   \   000002   C083         PUSH    DPH
   \   000004                ; Saved register size: 2
   \   000004                ; Auto size: 0
    288            check=0;
   \   000004   90....       MOV     DPTR,#check
   \   000007   12....       LCALL   ?Subroutine6 & 0xFFFF
    289            Recdata_GPGGA_start=0;
    290            Recdata_GPGSV_start=0;
   \                     ??CrossCallReturnLabel_15:
   \   00000A   90....       MOV     DPTR,#Recdata_GPGSV_start
   \   00000D   12....       LCALL   ??Subroutine32_0 & 0xFFFF
    291            Recdata_GPGSA_start=0;
    292            Recdata_GPRMC_start=0;
    293            Recdata_GPVTG_start=0;
   \                     ??CrossCallReturnLabel_88:
   \   000010   F0           MOVX    @DPTR,A
    294            while(check<295)
    295            {
    296                if(Recdata[check]=='$'&&Recdata[check+1]=='G'&&Recdata[check+2]=='P'
    297                  &&Recdata[check+3]=='G'&&Recdata[check+4]=='G'&&Recdata[check+5]=='A')
   \                     ??handle_0:
   \   000011   90....       MOV     DPTR,#check
   \   000014   E0           MOVX    A,@DPTR
   \   000015   24..         ADD     A,#Recdata & 0xff
   \   000017   F8           MOV     R0,A
   \   000018   A3           INC     DPTR
   \   000019   E0           MOVX    A,@DPTR
   \   00001A   34..         ADDC    A,#(Recdata >> 8) & 0xff
   \   00001C   F9           MOV     R1,A
   \   00001D   8882         MOV     DPL,R0
   \   00001F   8983         MOV     DPH,R1
   \   000021   E0           MOVX    A,@DPTR
   \   000022   6424         XRL     A,#0x24
   \   000024   6003         JZ      $+5
   \   000026   02....       LJMP    ??handle_1 & 0xFFFF
   \   000029   90....       MOV     DPTR,#check
   \   00002C   E0           MOVX    A,@DPTR
   \   00002D   24..         ADD     A,#(Recdata + 1) & 0xff
   \   00002F   08           INC     R0
   \   000030   A3           INC     DPTR
   \   000031   E0           MOVX    A,@DPTR
   \   000032   34..         ADDC    A,#((Recdata + 1) >> 8) & 0xff
   \   000034   F9           MOV     R1,A
   \   000035   8882         MOV     DPL,R0
   \   000037   8983         MOV     DPH,R1
   \   000039   E0           MOVX    A,@DPTR
   \   00003A   6447         XRL     A,#0x47
   \   00003C   6003         JZ      $+5
   \   00003E   02....       LJMP    ??handle_1 & 0xFFFF
   \   000041   90....       MOV     DPTR,#check
   \   000044   E0           MOVX    A,@DPTR
   \   000045   24..         ADD     A,#(Recdata + 2) & 0xff
   \   000047   08           INC     R0
   \   000048   A3           INC     DPTR
   \   000049   E0           MOVX    A,@DPTR
   \   00004A   34..         ADDC    A,#((Recdata + 2) >> 8) & 0xff
   \   00004C   F9           MOV     R1,A
   \   00004D   8882         MOV     DPL,R0
   \   00004F   8983         MOV     DPH,R1
   \   000051   E0           MOVX    A,@DPTR
   \   000052   6450         XRL     A,#0x50
   \   000054   6003         JZ      $+5
   \   000056   02....       LJMP    ??handle_1 & 0xFFFF
   \   000059   90....       MOV     DPTR,#check
   \   00005C   E0           MOVX    A,@DPTR
   \   00005D   24..         ADD     A,#(Recdata + 3) & 0xff
   \   00005F   08           INC     R0
   \   000060   A3           INC     DPTR
   \   000061   E0           MOVX    A,@DPTR
   \   000062   34..         ADDC    A,#((Recdata + 3) >> 8) & 0xff
   \   000064   F9           MOV     R1,A
   \   000065   8882         MOV     DPL,R0
   \   000067   8983         MOV     DPH,R1
   \   000069   E0           MOVX    A,@DPTR
   \   00006A   6447         XRL     A,#0x47
   \   00006C   6003         JZ      $+5
   \   00006E   02....       LJMP    ??handle_2 & 0xFFFF
   \   000071   12....       LCALL   ?Subroutine12 & 0xFFFF
   \                     ??CrossCallReturnLabel_35:
   \   000074   6447         XRL     A,#0x47
   \   000076   6003         JZ      $+5
   \   000078   02....       LJMP    ??handle_3 & 0xFFFF
   \   00007B   12....       LCALL   ?Subroutine11 & 0xFFFF
   \                     ??CrossCallReturnLabel_31:
   \   00007E   6441         XRL     A,#0x41
   \   000080   6003         JZ      $+5
   \   000082   02....       LJMP    ??handle_1 & 0xFFFF
    298                {
    299                   position=check+6;
   \   000085   12....       LCALL   ?Subroutine9 & 0xFFFF
   \                     ??CrossCallReturnLabel_21:
   \   000088   8021         SJMP    ??CrossCallReturnLabel_86
    300                   while(Recdata_GPGGA_start<70&&Recdata[position++]!='$')
    301                   {
    302                     Recdata_GPGGA[Recdata_GPGGA_start++]=Recdata[position-1];
   \                     ??handle_4:
   \   00008A   12....       LCALL   ?Subroutine10 & 0xFFFF
    303                     Recdata_GPGSV_start=0;
    304                     Recdata_GPGSA_start=0;
    305                     Recdata_GPRMC_start=0;
    306                     Recdata_GPVTG_start=0;
    307                   }
   \                     ??CrossCallReturnLabel_26:
   \   00008D   C0E0         PUSH    A
   \   00008F   90....       MOV     DPTR,#Recdata_GPGGA_start
   \   000092   E0           MOVX    A,@DPTR
   \   000093   24..         ADD     A,#Recdata_GPGGA & 0xff
   \   000095   F8           MOV     R0,A
   \   000096   A3           INC     DPTR
   \   000097   E0           MOVX    A,@DPTR
   \   000098   34..         ADDC    A,#(Recdata_GPGGA >> 8) & 0xff
   \   00009A   F9           MOV     R1,A
   \   00009B   8882         MOV     DPL,R0
   \   00009D   8983         MOV     DPH,R1
   \   00009F   D0E0         POP     A
   \   0000A1   F0           MOVX    @DPTR,A
   \   0000A2   90....       MOV     DPTR,#Recdata_GPGGA_start
   \   0000A5   12....       LCALL   ?Subroutine7 & 0xFFFF
   \                     ??CrossCallReturnLabel_17:
   \   0000A8   12....       LCALL   ?Subroutine3 & 0xFFFF
   \                     ??CrossCallReturnLabel_86:
   \   0000AB   F0           MOVX    @DPTR,A
   \   0000AC   90....       MOV     DPTR,#Recdata_GPGGA_start
   \   0000AF   12....       LCALL   ?Subroutine13 & 0xFFFF
   \                     ??CrossCallReturnLabel_38:
   \   0000B2   5005         JNC     ??handle_5
   \   0000B4   12....       LCALL   ?Subroutine1 & 0xFFFF
   \                     ??CrossCallReturnLabel_0:
   \   0000B7   70D1         JNZ     ??handle_4
    308                   //uint GaoDu_count=0;
    309                   uint i_utc=0;
   \                     ??handle_5:
   \   0000B9   7A00         MOV     R2,#0x0
   \   0000BB   7B00         MOV     R3,#0x0
    310                   uint i=0;
   \   0000BD   7800         MOV     R0,#0x0
   \   0000BF   7900         MOV     R1,#0x0
    311                   if(Recdata_GPGGA[i_utc+1]!='H')
   \   0000C1   90....       MOV     DPTR,#Recdata_GPGGA + 1
   \   0000C4   E0           MOVX    A,@DPTR
   \   0000C5   6448         XRL     A,#0x48
   \   0000C7   7014         JNZ     ??CrossCallReturnLabel_5
   \   0000C9   8017         SJMP    ??handle_6
    312                   {
    313                     while(Recdata_GPGGA[i_utc+1]!=',')
    314                    {
    315                      UTC[i++]=Recdata_GPGGA[i_utc+1];
   \                     ??handle_7:
   \   0000CB   E0           MOVX    A,@DPTR
   \   0000CC   C0E0         PUSH    A
   \   0000CE   74..         MOV     A,#UTC & 0xff
   \   0000D0   28           ADD     A,R0
   \   0000D1   F582         MOV     DPL,A
   \   0000D3   74..         MOV     A,#(UTC >> 8) & 0xff
   \   0000D5   39           ADDC    A,R1
   \   0000D6   F583         MOV     DPH,A
   \   0000D8   D0E0         POP     A
   \   0000DA   12....       LCALL   ?Subroutine2 & 0xFFFF
    316                      i_utc++;
    317                    }
   \                     ??CrossCallReturnLabel_5:
   \   0000DD   12....       LCALL   ?Subroutine22 & 0xFFFF
    318                   }
   \                     ??CrossCallReturnLabel_59:
   \   0000E0   70E9         JNZ     ??handle_7
    319                   uint i_weidu=i_utc+1;
   \                     ??handle_6:
   \   0000E2   EA           MOV     A,R2
   \   0000E3   2401         ADD     A,#0x1
   \   0000E5   0A           INC     R2
   \   0000E6   EB           MOV     A,R3
   \   0000E7   12....       LCALL   ??Subroutine29_0 & 0xFFFF
    320                   i=0;
   \                     ??CrossCallReturnLabel_77:
   \   0000EA   8012         SJMP    ??CrossCallReturnLabel_6
    321                   while(Recdata_GPGGA[i_weidu+1]!=',')
    322                   {
    323                     WeiDu[i++]=Recdata_GPGGA[i_weidu+1];
   \                     ??handle_8:
   \   0000EC   E0           MOVX    A,@DPTR
   \   0000ED   C0E0         PUSH    A
   \   0000EF   74..         MOV     A,#WeiDu & 0xff
   \   0000F1   28           ADD     A,R0
   \   0000F2   F582         MOV     DPL,A
   \   0000F4   74..         MOV     A,#(WeiDu >> 8) & 0xff
   \   0000F6   39           ADDC    A,R1
   \   0000F7   F583         MOV     DPH,A
   \   0000F9   D0E0         POP     A
   \   0000FB   12....       LCALL   ?Subroutine2 & 0xFFFF
    324                     i_weidu++;
    325                   }
   \                     ??CrossCallReturnLabel_6:
   \   0000FE   12....       LCALL   ?Subroutine22 & 0xFFFF
   \                     ??CrossCallReturnLabel_60:
   \   000101   70E9         JNZ     ??handle_8
    326                   uint i_N=i_weidu+1;
   \   000103   EA           MOV     A,R2
   \   000104   2401         ADD     A,#0x1
   \   000106   F8           MOV     R0,A
   \   000107   EB           MOV     A,R3
   \   000108   8005         SJMP    ??handle_9
    327                   i=0;
    328                   while(Recdata_GPGGA[i_N+1]!=',')
    329                   {
    330                     i_N++;
   \                     ??handle_10:
   \   00010A   E8           MOV     A,R0
   \   00010B   2401         ADD     A,#0x1
   \   00010D   08           INC     R0
   \   00010E   E9           MOV     A,R1
    331                   }
   \                     ??handle_9:
   \   00010F   12....       LCALL   ??Subroutine30_0 & 0xFFFF
   \                     ??CrossCallReturnLabel_80:
   \   000112   70F6         JNZ     ??handle_10
    332                   uint i_JingDu=i_N+1;
   \   000114   12....       LCALL   ?Subroutine17 & 0xFFFF
    333                   i=0;
   \                     ??CrossCallReturnLabel_74:
   \   000117   8012         SJMP    ??CrossCallReturnLabel_7
    334                   while(Recdata_GPGGA[i_JingDu+1]!=',')
    335                   {
    336                     JingDu[i++]=Recdata_GPGGA[i_JingDu+1];
   \                     ??handle_11:
   \   000119   E0           MOVX    A,@DPTR
   \   00011A   C0E0         PUSH    A
   \   00011C   74..         MOV     A,#JingDu & 0xff
   \   00011E   28           ADD     A,R0
   \   00011F   F582         MOV     DPL,A
   \   000121   74..         MOV     A,#(JingDu >> 8) & 0xff
   \   000123   39           ADDC    A,R1
   \   000124   F583         MOV     DPH,A
   \   000126   D0E0         POP     A
   \   000128   12....       LCALL   ?Subroutine2 & 0xFFFF
    337                     i_JingDu++;
    338                   }
   \                     ??CrossCallReturnLabel_7:
   \   00012B   12....       LCALL   ?Subroutine22 & 0xFFFF
   \                     ??CrossCallReturnLabel_61:
   \   00012E   70E9         JNZ     ??handle_11
    339                   uint i_E=i_JingDu+1;
   \   000130   EA           MOV     A,R2
   \   000131   2401         ADD     A,#0x1
   \   000133   F8           MOV     R0,A
   \   000134   EB           MOV     A,R3
   \   000135   8005         SJMP    ??handle_12
    340                   i=0;
    341                   while(Recdata_GPGGA[i_E+1]!=',')
    342                   {
    343                     i_E++;
   \                     ??handle_13:
   \   000137   E8           MOV     A,R0
   \   000138   2401         ADD     A,#0x1
   \   00013A   08           INC     R0
   \   00013B   E9           MOV     A,R1
    344                   }
   \                     ??handle_12:
   \   00013C   12....       LCALL   ??Subroutine30_0 & 0xFFFF
   \                     ??CrossCallReturnLabel_81:
   \   00013F   70F6         JNZ     ??handle_13
    345                   uint i_temp=i_E+1;
    346                   i=0;
    347                   while(Recdata_GPGGA[i_temp+1]!=',')
    348                   {
    349                     i_temp++;
   \                     ??handle_14:
   \   000141   12....       LCALL   ?Subroutine16 & 0xFFFF
    350                   }
   \                     ??CrossCallReturnLabel_78:
   \   000144   70FB         JNZ     ??handle_14
    351                   uint i_WeiXing=i_temp+1;
   \   000146   12....       LCALL   ?Subroutine17 & 0xFFFF
    352                   i=0;
   \                     ??CrossCallReturnLabel_75:
   \   000149   8012         SJMP    ??CrossCallReturnLabel_8
    353                   while(Recdata_GPGGA[i_WeiXing+1]!=',')
    354                   {
    355                     WeiXing[i++]=Recdata_GPGGA[i_WeiXing+1];
   \                     ??handle_15:
   \   00014B   E0           MOVX    A,@DPTR
   \   00014C   C0E0         PUSH    A
   \   00014E   74..         MOV     A,#WeiXing & 0xff
   \   000150   28           ADD     A,R0
   \   000151   F582         MOV     DPL,A
   \   000153   74..         MOV     A,#(WeiXing >> 8) & 0xff
   \   000155   39           ADDC    A,R1
   \   000156   F583         MOV     DPH,A
   \   000158   D0E0         POP     A
   \   00015A   12....       LCALL   ?Subroutine2 & 0xFFFF
    356                     i_WeiXing++;
    357                   }
   \                     ??CrossCallReturnLabel_8:
   \   00015D   12....       LCALL   ?Subroutine22 & 0xFFFF
   \                     ??CrossCallReturnLabel_62:
   \   000160   70E9         JNZ     ??handle_15
    358                   uint i_W=i_WeiXing+1;
   \   000162   EA           MOV     A,R2
   \   000163   2401         ADD     A,#0x1
   \   000165   F8           MOV     R0,A
   \   000166   EB           MOV     A,R3
   \   000167   8005         SJMP    ??handle_16
    359                   i=0;
    360                   while(Recdata_GPGGA[i_W+1]!=',')
    361                   {         
    362                     i_W++;
   \                     ??handle_17:
   \   000169   E8           MOV     A,R0
   \   00016A   2401         ADD     A,#0x1
   \   00016C   08           INC     R0
   \   00016D   E9           MOV     A,R1
    363                   }
   \                     ??handle_16:
   \   00016E   12....       LCALL   ??Subroutine30_0 & 0xFFFF
   \                     ??CrossCallReturnLabel_82:
   \   000171   70F6         JNZ     ??handle_17
    364                   uint i_GaoDu=i_W+1;
   \   000173   12....       LCALL   ?Subroutine17 & 0xFFFF
    365                   i=0;
    366                   while(Recdata_GPGGA[i_GaoDu+1]!=',')
   \                     ??CrossCallReturnLabel_76:
   \   000176   12....       LCALL   ?Subroutine22 & 0xFFFF
   \                     ??CrossCallReturnLabel_63:
   \   000179   7003         JNZ     $+5
   \   00017B   02....       LJMP    ??handle_1 & 0xFFFF
    367                   {    
    368                     GaoDu[i++]=Recdata_GPGGA[i_GaoDu+1];
   \   00017E   E0           MOVX    A,@DPTR
   \   00017F   C0E0         PUSH    A
   \   000181   74..         MOV     A,#GaoDu & 0xff
   \   000183   28           ADD     A,R0
   \   000184   F582         MOV     DPL,A
   \   000186   74..         MOV     A,#(GaoDu >> 8) & 0xff
   \   000188   39           ADDC    A,R1
   \   000189   F583         MOV     DPH,A
   \   00018B   D0E0         POP     A
   \   00018D   12....       LCALL   ?Subroutine2 & 0xFFFF
    369                     i_GaoDu++;
    370                   }
    371                   /*for (uint i=0;i<6;i++)
    372                     UTC[i]=Recdata_GPGGA[i+1];
    373                   if (Recdata_GPGGA[12]==',')
    374                   {
    375                     for (uint i=0;i<9;i++)
    376                       WeiDu[i]='*';
    377                     for (uint i=0;i<10;i++)
    378                       JingDu[i]='*';
    379                     for (uint i=0;i<2;i++)
    380                       WeiXing[i]='*';
    381                     for (uint i=0;i<5;i++)
    382                       GaoDu[i]='*';
    383                   }
    384                   else
    385                   {
    386                     for (uint i=0;i<9;i++)
    387                       WeiDu[i]=Recdata_GPGGA[i+12];
    388                     for (uint i=0;i<10;i++)
    389                       JingDu[i]=Recdata_GPGGA[i+24];
    390                   }
    391                   uint GaoDu_count=0;
    392                   while(Recdata_GPGGA[GaoDu_count]!='M')
    393                   {
    394                     if(GaoDu_count<70)
    395                       GaoDu_count++;
    396                   }
    397                   if(Recdata_GPGGA[GaoDu_count]=='M')
    398                   {
    399                     if(Recdata_GPGGA[GaoDu_count-6]>'0'&&Recdata_GPGGA[GaoDu_count-6]<='9')
    400                     {
    401                       GaoDu[0]=Recdata_GPGGA[GaoDu_count-6];
    402                       GaoDu[1]=Recdata_GPGGA[GaoDu_count-5];
    403                       GaoDu[2]=Recdata_GPGGA[GaoDu_count-4];
    404                       GaoDu[3]=Recdata_GPGGA[GaoDu_count-3];
    405                       GaoDu[4]=Recdata_GPGGA[GaoDu_count-2];
    406                     }
    407                     else if(Recdata_GPGGA[GaoDu_count-5]>'0'&&Recdata_GPGGA[GaoDu_count-6]<='9')
    408                     {
    409                       GaoDu[0]='0';
    410                       GaoDu[1]=Recdata_GPGGA[GaoDu_count-5];
    411                       GaoDu[2]=Recdata_GPGGA[GaoDu_count-4];
    412                       GaoDu[3]=Recdata_GPGGA[GaoDu_count-3];
    413                       GaoDu[4]=Recdata_GPGGA[GaoDu_count-2];
    414                     }
    415                     else 
    416                     {
    417                       GaoDu[0]='0';
    418                       GaoDu[1]='0';
    419                       GaoDu[2]=Recdata_GPGGA[GaoDu_count-4];
    420                       GaoDu[3]=Recdata_GPGGA[GaoDu_count-3];
    421                       GaoDu[4]=Recdata_GPGGA[GaoDu_count-2];
    422                     }
    423                   }*/
    424                }
   \                     ??CrossCallReturnLabel_9:
   \   000190   80E4         SJMP    ??CrossCallReturnLabel_76
   \                     ??handle_3:
   \   000192   E0           MOVX    A,@DPTR
   \   000193   6453         XRL     A,#0x53
   \   000195   6003         JZ      $+5
   \   000197   02....       LJMP    ??handle_1 & 0xFFFF
   \   00019A   12....       LCALL   ?Subroutine11 & 0xFFFF
   \                     ??CrossCallReturnLabel_32:
   \   00019D   6456         XRL     A,#0x56
   \   00019F   703D         JNZ     ??handle_18
    425                else if(Recdata[check]=='$'&&Recdata[check+1]=='G'&&Recdata[check+2]=='P'
    426                   &&Recdata[check+3]=='G'&&Recdata[check+4]=='S'&&Recdata[check+5]=='V')
    427                {
    428                   position=check+6;
   \   0001A1   12....       LCALL   ?Subroutine9 & 0xFFFF
   \                     ??CrossCallReturnLabel_22:
   \   0001A4   F0           MOVX    @DPTR,A
    429                   while(Recdata[position++]!='$'&&Recdata_GPGSV_start<70)
   \   0001A5   12....       LCALL   ?Subroutine1 & 0xFFFF
   \                     ??CrossCallReturnLabel_1:
   \   0001A8   7003         JNZ     $+5
   \   0001AA   02....       LJMP    ??handle_1 & 0xFFFF
   \   0001AD   90....       MOV     DPTR,#Recdata_GPGSV_start
   \   0001B0   12....       LCALL   ?Subroutine13 & 0xFFFF
   \                     ??CrossCallReturnLabel_39:
   \   0001B3   4003         JC      $+5
   \   0001B5   02....       LJMP    ??handle_1 & 0xFFFF
    430                   {
    431                     Recdata_GPGSV[Recdata_GPGSV_start++]=Recdata[position-1];
   \   0001B8   12....       LCALL   ?Subroutine10 & 0xFFFF
   \                     ??CrossCallReturnLabel_27:
   \   0001BB   C0E0         PUSH    A
   \   0001BD   90....       MOV     DPTR,#Recdata_GPGSV_start
   \   0001C0   E0           MOVX    A,@DPTR
   \   0001C1   24..         ADD     A,#Recdata_GPGSV & 0xff
   \   0001C3   F8           MOV     R0,A
   \   0001C4   A3           INC     DPTR
   \   0001C5   E0           MOVX    A,@DPTR
   \   0001C6   34..         ADDC    A,#(Recdata_GPGSV >> 8) & 0xff
   \   0001C8   F9           MOV     R1,A
   \   0001C9   8882         MOV     DPL,R0
   \   0001CB   8983         MOV     DPH,R1
   \   0001CD   D0E0         POP     A
   \   0001CF   F0           MOVX    @DPTR,A
   \   0001D0   90....       MOV     DPTR,#Recdata_GPGSV_start
   \   0001D3   12....       LCALL   ?Subroutine15 & 0xFFFF
    432                     Recdata_GPGGA_start=0;
   \                     ??CrossCallReturnLabel_45:
   \   0001D6   90....       MOV     DPTR,#Recdata_GPGGA_start
   \   0001D9   12....       LCALL   ?Subroutine3 & 0xFFFF
    433                     Recdata_GPGSA_start=0;
    434                     Recdata_GPRMC_start=0;
    435                     Recdata_GPVTG_start=0;
    436                   }
    437                   /*for (uint i=0;i<2;i++)
    438                     WeiXing[i]=Recdata_GPGSV[i+5];*/
    439                }
   \                     ??CrossCallReturnLabel_87:
   \   0001DC   80C6         SJMP    ??CrossCallReturnLabel_22
   \                     ??handle_18:
   \   0001DE   E0           MOVX    A,@DPTR
   \   0001DF   6441         XRL     A,#0x41
   \   0001E1   6003         JZ      $+5
   \   0001E3   02....       LJMP    ??handle_1 & 0xFFFF
    440                else if(Recdata[check]=='$'&&Recdata[check+1]=='G'&&Recdata[check+2]=='P'
    441                    &&Recdata[check+3]=='G'&&Recdata[check+4]=='S'&&Recdata[check+5]=='A')
    442                {
    443                    position=check+6;
   \   0001E6   12....       LCALL   ?Subroutine9 & 0xFFFF
   \                     ??CrossCallReturnLabel_23:
   \   0001E9   8027         SJMP    ??CrossCallReturnLabel_19
    444                    while(Recdata_GPGSA_start<70&&Recdata[position++]!='$')
    445                    {
    446                      Recdata_GPGSA[Recdata_GPGSA_start++]=Recdata[position-1];
   \                     ??handle_19:
   \   0001EB   12....       LCALL   ?Subroutine10 & 0xFFFF
   \                     ??CrossCallReturnLabel_28:
   \   0001EE   C0E0         PUSH    A
   \   0001F0   90....       MOV     DPTR,#Recdata_GPGSA_start
   \   0001F3   E0           MOVX    A,@DPTR
   \   0001F4   24..         ADD     A,#Recdata_GPGSA & 0xff
   \   0001F6   F8           MOV     R0,A
   \   0001F7   A3           INC     DPTR
   \   0001F8   E0           MOVX    A,@DPTR
   \   0001F9   34..         ADDC    A,#(Recdata_GPGSA >> 8) & 0xff
   \   0001FB   F9           MOV     R1,A
   \   0001FC   8882         MOV     DPL,R0
   \   0001FE   8983         MOV     DPH,R1
   \   000200   D0E0         POP     A
   \   000202   F0           MOVX    @DPTR,A
   \   000203   90....       MOV     DPTR,#Recdata_GPGSA_start
   \   000206   12....       LCALL   ?Subroutine7 & 0xFFFF
    447                      Recdata_GPGSV_start=0;
   \                     ??CrossCallReturnLabel_18:
   \   000209   12....       LCALL   ?Subroutine6 & 0xFFFF
    448                      Recdata_GPGGA_start=0;
    449                      Recdata_GPRMC_start=0;
   \                     ??CrossCallReturnLabel_16:
   \   00020C   90....       MOV     DPTR,#Recdata_GPRMC_start
   \   00020F   12....       LCALL   ?Subroutine8 & 0xFFFF
    450                      Recdata_GPVTG_start=0;
    451                    }
   \                     ??CrossCallReturnLabel_19:
   \   000212   F0           MOVX    @DPTR,A
   \   000213   90....       MOV     DPTR,#Recdata_GPGSA_start
   \   000216   12....       LCALL   ?Subroutine13 & 0xFFFF
   \                     ??CrossCallReturnLabel_40:
   \   000219   5005         JNC     ??handle_20
   \   00021B   12....       LCALL   ?Subroutine1 & 0xFFFF
   \                     ??CrossCallReturnLabel_2:
   \   00021E   70CB         JNZ     ??handle_19
    452                    JiBie[0]=Recdata_GPGSA[3];
   \                     ??handle_20:
   \   000220   90....       MOV     DPTR,#Recdata_GPGSA + 3
   \   000223   E0           MOVX    A,@DPTR
   \   000224   90....       MOV     DPTR,#JiBie
   \   000227   F0           MOVX    @DPTR,A
   \   000228   02....       LJMP    ??handle_1 & 0xFFFF
    453                }
   \                     ??handle_2:
   \   00022B   E0           MOVX    A,@DPTR
   \   00022C   6452         XRL     A,#0x52
   \   00022E   6003         JZ      $+5
   \   000230   02....       LJMP    ??handle_21 & 0xFFFF
   \   000233   12....       LCALL   ?Subroutine12 & 0xFFFF
   \                     ??CrossCallReturnLabel_36:
   \   000236   644D         XRL     A,#0x4d
   \   000238   6003         JZ      $+5
   \   00023A   02....       LJMP    ??handle_1 & 0xFFFF
   \   00023D   12....       LCALL   ?Subroutine11 & 0xFFFF
   \                     ??CrossCallReturnLabel_33:
   \   000240   6443         XRL     A,#0x43
   \   000242   6003         JZ      $+5
   \   000244   02....       LJMP    ??handle_1 & 0xFFFF
    454                else if(Recdata[check]=='$'&&Recdata[check+1]=='G'&&Recdata[check+2]=='P'
    455                     &&Recdata[check+3]=='R'&&Recdata[check+4]=='M'&&Recdata[check+5]=='C')
    456                {
    457                    position=check+6;
   \   000247   12....       LCALL   ?Subroutine9 & 0xFFFF
   \                     ??CrossCallReturnLabel_24:
   \   00024A   8024         SJMP    ??CrossCallReturnLabel_20
    458                    while(Recdata_GPRMC_start<70&&Recdata[position++]!='$')
    459                    {
    460                      Recdata_GPRMC[Recdata_GPRMC_start++]=Recdata[position-1];
   \                     ??handle_22:
   \   00024C   12....       LCALL   ?Subroutine10 & 0xFFFF
   \                     ??CrossCallReturnLabel_29:
   \   00024F   C0E0         PUSH    A
   \   000251   90....       MOV     DPTR,#Recdata_GPRMC_start
   \   000254   E0           MOVX    A,@DPTR
   \   000255   24..         ADD     A,#Recdata_GPRMC & 0xff
   \   000257   F8           MOV     R0,A
   \   000258   A3           INC     DPTR
   \   000259   E0           MOVX    A,@DPTR
   \   00025A   34..         ADDC    A,#(Recdata_GPRMC >> 8) & 0xff
   \   00025C   F9           MOV     R1,A
   \   00025D   8882         MOV     DPL,R0
   \   00025F   8983         MOV     DPH,R1
   \   000261   D0E0         POP     A
   \   000263   F0           MOVX    @DPTR,A
   \   000264   90....       MOV     DPTR,#Recdata_GPRMC_start
   \   000267   12....       LCALL   ?Subroutine5 & 0xFFFF
    461                      Recdata_GPGSV_start=0;
    462                      Recdata_GPGSA_start=0;
    463                      Recdata_GPGGA_start=0;
   \                     ??CrossCallReturnLabel_13:
   \   00026A   90....       MOV     DPTR,#Recdata_GPGGA_start
   \   00026D   12....       LCALL   ?Subroutine8 & 0xFFFF
    464                      Recdata_GPVTG_start=0;
    465                    }
   \                     ??CrossCallReturnLabel_20:
   \   000270   F0           MOVX    @DPTR,A
   \   000271   90....       MOV     DPTR,#Recdata_GPRMC_start
   \   000274   12....       LCALL   ?Subroutine13 & 0xFFFF
   \                     ??CrossCallReturnLabel_41:
   \   000277   5005         JNC     ??handle_23
   \   000279   12....       LCALL   ?Subroutine1 & 0xFFFF
   \                     ??CrossCallReturnLabel_3:
   \   00027C   70CE         JNZ     ??handle_22
    466                    uint i_utc=0;
   \                     ??handle_23:
   \   00027E   7800         MOV     R0,#0x0
   \   000280   7900         MOV     R1,#0x0
    467                    uint i=0;
   \   000282   7A00         MOV     R2,#0x0
   \   000284   7B00         MOV     R3,#0x0
   \   000286   8012         SJMP    ??CrossCallReturnLabel_10
    468                    while(Recdata_GPGGA[i_utc+1]!=',')
    469                    {
    470                      UTC[i++]=Recdata_GPGGA[i_utc+1];
   \                     ??handle_24:
   \   000288   E0           MOVX    A,@DPTR
   \   000289   C0E0         PUSH    A
   \   00028B   74..         MOV     A,#UTC & 0xff
   \   00028D   2A           ADD     A,R2
   \   00028E   F582         MOV     DPL,A
   \   000290   74..         MOV     A,#(UTC >> 8) & 0xff
   \   000292   3B           ADDC    A,R3
   \   000293   F583         MOV     DPH,A
   \   000295   D0E0         POP     A
   \   000297   12....       LCALL   ?Subroutine4 & 0xFFFF
    471                      i_utc++;
    472                    }
   \                     ??CrossCallReturnLabel_10:
   \   00029A   12....       LCALL   ??Subroutine31_0 & 0xFFFF
   \                     ??CrossCallReturnLabel_83:
   \   00029D   70E9         JNZ     ??handle_24
    473                    uint i_temp=i_utc+1;
   \   00029F   E8           MOV     A,R0
   \   0002A0   2401         ADD     A,#0x1
   \   0002A2   FA           MOV     R2,A
   \   0002A3   E9           MOV     A,R1
   \   0002A4   8005         SJMP    ??handle_25
    474                    i=0;
    475                    while(Recdata_GPGGA[i_temp+1]!=',')
    476                    {
    477                      i_temp++;
   \                     ??handle_26:
   \   0002A6   EA           MOV     A,R2
   \   0002A7   2401         ADD     A,#0x1
   \   0002A9   0A           INC     R2
   \   0002AA   EB           MOV     A,R3
   \                     ??handle_25:
   \   0002AB   3400         ADDC    A,#0x0
   \   0002AD   FB           MOV     R3,A
    478                    }
   \   0002AE   12....       LCALL   ?Subroutine22 & 0xFFFF
   \                     ??CrossCallReturnLabel_64:
   \   0002B1   70F3         JNZ     ??handle_26
    479                    uint i_weidu=i_utc+1;
   \   0002B3   12....       LCALL   ?Subroutine21 & 0xFFFF
    480                    i=0;
   \                     ??CrossCallReturnLabel_57:
   \   0002B6   8012         SJMP    ??CrossCallReturnLabel_11
    481                    while(Recdata_GPGGA[i_weidu+1]!=',')
    482                    {
    483                      WeiDu[i++]=Recdata_GPGGA[i_weidu+1];
   \                     ??handle_27:
   \   0002B8   E0           MOVX    A,@DPTR
   \   0002B9   C0E0         PUSH    A
   \   0002BB   74..         MOV     A,#WeiDu & 0xff
   \   0002BD   2A           ADD     A,R2
   \   0002BE   F582         MOV     DPL,A
   \   0002C0   74..         MOV     A,#(WeiDu >> 8) & 0xff
   \   0002C2   3B           ADDC    A,R3
   \   0002C3   F583         MOV     DPH,A
   \   0002C5   D0E0         POP     A
   \   0002C7   12....       LCALL   ?Subroutine4 & 0xFFFF
    484                      i_weidu++;
    485                    }
   \                     ??CrossCallReturnLabel_11:
   \   0002CA   12....       LCALL   ??Subroutine31_0 & 0xFFFF
   \                     ??CrossCallReturnLabel_84:
   \   0002CD   70E9         JNZ     ??handle_27
    486                    uint i_N=i_weidu+1;
    487                    i=0;
    488                    while(Recdata_GPGGA[i_N+1]!=',')
    489                    {
    490                      i_N++;
   \                     ??handle_28:
   \   0002CF   12....       LCALL   ?Subroutine16 & 0xFFFF
    491                    }
   \                     ??CrossCallReturnLabel_79:
   \   0002D2   70FB         JNZ     ??handle_28
    492                    uint i_JingDu=i_N+1;
   \   0002D4   12....       LCALL   ?Subroutine21 & 0xFFFF
    493                    i=0;
    494                    while(Recdata_GPGGA[i_JingDu+1]!=',')
   \                     ??CrossCallReturnLabel_58:
   \   0002D7   12....       LCALL   ??Subroutine31_0 & 0xFFFF
   \                     ??CrossCallReturnLabel_85:
   \   0002DA   605E         JZ      ??handle_1
    495                    {
    496                      JingDu[i++]=Recdata_GPGGA[i_JingDu+1];
   \   0002DC   E0           MOVX    A,@DPTR
   \   0002DD   C0E0         PUSH    A
   \   0002DF   74..         MOV     A,#JingDu & 0xff
   \   0002E1   2A           ADD     A,R2
   \   0002E2   F582         MOV     DPL,A
   \   0002E4   74..         MOV     A,#(JingDu >> 8) & 0xff
   \   0002E6   3B           ADDC    A,R3
   \   0002E7   F583         MOV     DPH,A
   \   0002E9   D0E0         POP     A
   \   0002EB   12....       LCALL   ?Subroutine4 & 0xFFFF
    497                      i_JingDu++;
    498                    }
    499                    /*for (uint i=0;i<6;i++)
    500                      UTC[i]=Recdata_GPRMC[i+1];
    501                    if (Recdata_GPRMC[14]==',')
    502                    {
    503                      for (uint i=0;i<9;i++)
    504                        WeiDu[i]='*';
    505                      for (uint i=0;i<10;i++)
    506                        JingDu[i]='*';
    507                    }
    508                    else
    509                    {
    510                      for (uint i=0;i<9;i++)
    511                        WeiDu[i]=Recdata_GPRMC[i+14];
    512                      for (uint i=0;i<10;i++)
    513                        JingDu[i]=Recdata_GPRMC[i+26];
    514                    }*/
    515                }
   \                     ??CrossCallReturnLabel_12:
   \   0002EE   80E7         SJMP    ??CrossCallReturnLabel_58
   \                     ??handle_21:
   \   0002F0   E0           MOVX    A,@DPTR
   \   0002F1   6456         XRL     A,#0x56
   \   0002F3   7045         JNZ     ??handle_1
   \   0002F5   12....       LCALL   ?Subroutine12 & 0xFFFF
   \                     ??CrossCallReturnLabel_37:
   \   0002F8   6454         XRL     A,#0x54
   \   0002FA   703E         JNZ     ??handle_1
   \   0002FC   12....       LCALL   ?Subroutine11 & 0xFFFF
   \                     ??CrossCallReturnLabel_34:
   \   0002FF   6447         XRL     A,#0x47
   \   000301   7037         JNZ     ??handle_1
    516                else if(Recdata[check]=='$'&&Recdata[check+1]=='G'&&Recdata[check+2]=='P'
    517                     &&Recdata[check+3]=='V'&&Recdata[check+4]=='T'&&Recdata[check+5]=='G')
    518                {
    519                    position=check+6;
   \   000303   12....       LCALL   ?Subroutine9 & 0xFFFF
   \                     ??CrossCallReturnLabel_25:
   \   000306   8024         SJMP    ??CrossCallReturnLabel_67
    520                    while(Recdata_GPVTG_start<70&&Recdata[position++]!='$')
    521                    {
    522                      Recdata_GPVTG[Recdata_GPVTG_start++]=Recdata[position-1];
   \                     ??handle_29:
   \   000308   12....       LCALL   ?Subroutine10 & 0xFFFF
   \                     ??CrossCallReturnLabel_30:
   \   00030B   C0E0         PUSH    A
   \   00030D   90....       MOV     DPTR,#Recdata_GPVTG_start
   \   000310   E0           MOVX    A,@DPTR
   \   000311   24..         ADD     A,#Recdata_GPVTG & 0xff
   \   000313   F8           MOV     R0,A
   \   000314   A3           INC     DPTR
   \   000315   E0           MOVX    A,@DPTR
   \   000316   34..         ADDC    A,#(Recdata_GPVTG >> 8) & 0xff
   \   000318   F9           MOV     R1,A
   \   000319   8882         MOV     DPL,R0
   \   00031B   8983         MOV     DPH,R1
   \   00031D   D0E0         POP     A
   \   00031F   F0           MOVX    @DPTR,A
   \   000320   90....       MOV     DPTR,#Recdata_GPVTG_start
   \   000323   12....       LCALL   ?Subroutine5 & 0xFFFF
    523                      Recdata_GPGSV_start=0;
    524                      Recdata_GPGSA_start=0;
    525                      Recdata_GPRMC_start=0;
   \                     ??CrossCallReturnLabel_14:
   \   000326   90....       MOV     DPTR,#Recdata_GPRMC_start
   \   000329   12....       LCALL   ?Subroutine25 & 0xFFFF
    526                      Recdata_GPGGA_start=0;
    527                    }
   \                     ??CrossCallReturnLabel_67:
   \   00032C   F0           MOVX    @DPTR,A
   \   00032D   90....       MOV     DPTR,#Recdata_GPVTG_start
   \   000330   12....       LCALL   ?Subroutine13 & 0xFFFF
    528                }
   \                     ??CrossCallReturnLabel_42:
   \   000333   5005         JNC     ??handle_1
   \   000335   12....       LCALL   ?Subroutine1 & 0xFFFF
   \                     ??CrossCallReturnLabel_4:
   \   000338   70CE         JNZ     ??handle_29
    529                check=check+1;
   \                     ??handle_1:
   \   00033A   90....       MOV     DPTR,#check
   \   00033D   12....       LCALL   ?Subroutine15 & 0xFFFF
    530            } 	  
   \                     ??CrossCallReturnLabel_46:
   \   000340   90....       MOV     DPTR,#check
   \   000343   C3           CLR     C
   \   000344   E0           MOVX    A,@DPTR
   \   000345   9427         SUBB    A,#0x27
   \   000347   A3           INC     DPTR
   \   000348   E0           MOVX    A,@DPTR
   \   000349   9401         SUBB    A,#0x1
   \   00034B   5003         JNC     $+5
   \   00034D   02....       LJMP    ??handle_0 & 0xFFFF
    531          }
   \   000350   D083         POP     DPH
   \   000352   D082         POP     DPL
   \   000354   02....       LJMP    ?BRET

   \                                 In  segment BANKED_CODE, align 1, keep-with-next
   \                     ?Subroutine22:
   \   000000   74..         MOV     A,#(Recdata_GPGGA + 1) & 0xff
   \   000002   2A           ADD     A,R2
   \   000003   F582         MOV     DPL,A
   \   000005   74..         MOV     A,#((Recdata_GPGGA + 1) >> 8) & 0xff
   \   000007   3B           ADDC    A,R3
   \   000008   F583         MOV     DPH,A
   \   00000A   E0           MOVX    A,@DPTR
   \   00000B   642C         XRL     A,#0x2c
   \   00000D   22           RET

   \                                 In  segment BANKED_CODE, align 1, keep-with-next
   \                     ?Subroutine21:
   \   000000   12....       LCALL   ?Subroutine27 & 0xFFFF
   \                     ??CrossCallReturnLabel_71:
   \   000003   7A00         MOV     R2,#0x0
   \   000005   7B00         MOV     R3,#0x0
   \   000007   22           RET

   \                                 In  segment BANKED_CODE, align 1, keep-with-next
   \                     ?Subroutine17:
   \   000000   E8           MOV     A,R0
   \   000001   2401         ADD     A,#0x1
   \   000003   FA           MOV     R2,A
   \   000004   E9           MOV     A,R1
   \   000005                REQUIRE ??Subroutine29_0
   \   000005                ; // Fall through to label ??Subroutine29_0

   \                                 In  segment BANKED_CODE, align 1, keep-with-next
   \                     ??Subroutine29_0:
   \   000000   3400         ADDC    A,#0x0
   \   000002   FB           MOV     R3,A
   \   000003   7800         MOV     R0,#0x0
   \   000005   7900         MOV     R1,#0x0
   \   000007   22           RET

   \                                 In  segment BANKED_CODE, align 1, keep-with-next
   \                     ?Subroutine16:
   \   000000   E8           MOV     A,R0
   \   000001   2401         ADD     A,#0x1
   \   000003   08           INC     R0
   \   000004   E9           MOV     A,R1
   \   000005                REQUIRE ??Subroutine30_0
   \   000005                ; // Fall through to label ??Subroutine30_0

   \                                 In  segment BANKED_CODE, align 1, keep-with-next
   \                     ??Subroutine30_0:
   \   000000   3400         ADDC    A,#0x0
   \   000002   F9           MOV     R1,A
   \   000003                REQUIRE ??Subroutine31_0
   \   000003                ; // Fall through to label ??Subroutine31_0

   \                                 In  segment BANKED_CODE, align 1, keep-with-next
   \                     ??Subroutine31_0:
   \   000000   74..         MOV     A,#(Recdata_GPGGA + 1) & 0xff
   \   000002   28           ADD     A,R0
   \   000003   F582         MOV     DPL,A
   \   000005   74..         MOV     A,#((Recdata_GPGGA + 1) >> 8) & 0xff
   \   000007   39           ADDC    A,R1
   \   000008   F583         MOV     DPH,A
   \   00000A   E0           MOVX    A,@DPTR
   \   00000B   642C         XRL     A,#0x2c
   \   00000D   22           RET

   \                                 In  segment BANKED_CODE, align 1, keep-with-next
   \                     ?Subroutine15:
   \   000000   12....       LCALL   ?Subroutine28 & 0xFFFF
   \                     ??CrossCallReturnLabel_72:
   \   000003   22           RET

   \                                 In  segment BANKED_CODE, align 1, keep-with-next
   \                     ?Subroutine28:
   \   000000   E0           MOVX    A,@DPTR
   \   000001   2401         ADD     A,#0x1
   \   000003   F0           MOVX    @DPTR,A
   \   000004   A3           INC     DPTR
   \   000005   E0           MOVX    A,@DPTR
   \   000006   3400         ADDC    A,#0x0
   \   000008   F0           MOVX    @DPTR,A
   \   000009   22           RET

   \                                 In  segment BANKED_CODE, align 1, keep-with-next
   \                     ?Subroutine13:
   \   000000   C3           CLR     C
   \   000001   E0           MOVX    A,@DPTR
   \   000002   9446         SUBB    A,#0x46
   \   000004   A3           INC     DPTR
   \   000005   E0           MOVX    A,@DPTR
   \   000006   9400         SUBB    A,#0x0
   \   000008   22           RET

   \                                 In  segment BANKED_CODE, align 1, keep-with-next
   \                     ?Subroutine12:
   \   000000   90....       MOV     DPTR,#check
   \   000003   E0           MOVX    A,@DPTR
   \   000004   24..         ADD     A,#(Recdata + 4) & 0xff
   \   000006   08           INC     R0
   \   000007   A3           INC     DPTR
   \   000008   E0           MOVX    A,@DPTR
   \   000009   34..         ADDC    A,#((Recdata + 4) >> 8) & 0xff
   \   00000B   F9           MOV     R1,A
   \   00000C   8882         MOV     DPL,R0
   \   00000E   8983         MOV     DPH,R1
   \   000010   E0           MOVX    A,@DPTR
   \   000011   22           RET

   \                                 In  segment BANKED_CODE, align 1, keep-with-next
   \                     ?Subroutine11:
   \   000000   90....       MOV     DPTR,#check
   \   000003   E0           MOVX    A,@DPTR
   \   000004   24..         ADD     A,#(Recdata + 5) & 0xff
   \   000006   08           INC     R0
   \   000007   A3           INC     DPTR
   \   000008   E0           MOVX    A,@DPTR
   \   000009   34..         ADDC    A,#((Recdata + 5) >> 8) & 0xff
   \   00000B   F9           MOV     R1,A
   \   00000C   8882         MOV     DPL,R0
   \   00000E   8983         MOV     DPH,R1
   \   000010   E0           MOVX    A,@DPTR
   \   000011   22           RET

   \                                 In  segment BANKED_CODE, align 1, keep-with-next
   \                     ?Subroutine10:
   \   000000   90....       MOV     DPTR,#position
   \   000003   E0           MOVX    A,@DPTR
   \   000004   24..         ADD     A,#(Recdata + 255) & 0xff
   \   000006   F8           MOV     R0,A
   \   000007   A3           INC     DPTR
   \   000008   E0           MOVX    A,@DPTR
   \   000009   34..         ADDC    A,#((Recdata - 1) >> 8) & 0xff
   \   00000B   F9           MOV     R1,A
   \   00000C   8882         MOV     DPL,R0
   \   00000E   8983         MOV     DPH,R1
   \   000010   E0           MOVX    A,@DPTR
   \   000011   22           RET

   \                                 In  segment BANKED_CODE, align 1, keep-with-next
   \                     ?Subroutine9:
   \   000000   90....       MOV     DPTR,#check
   \   000003   E0           MOVX    A,@DPTR
   \   000004   2406         ADD     A,#0x6
   \   000006   F8           MOV     R0,A
   \   000007   A3           INC     DPTR
   \   000008   E0           MOVX    A,@DPTR
   \   000009   3400         ADDC    A,#0x0
   \   00000B   F9           MOV     R1,A
   \   00000C   90....       MOV     DPTR,#position
   \   00000F   E8           MOV     A,R0
   \   000010   F0           MOVX    @DPTR,A
   \   000011   A3           INC     DPTR
   \   000012   E9           MOV     A,R1
   \   000013   22           RET

   \                                 In  segment BANKED_CODE, align 1, keep-with-next
   \                     ?Subroutine8:
   \   000000   12....       LCALL   ?Subroutine26 & 0xFFFF
   \                     ??CrossCallReturnLabel_91:
   \   000003   22           RET

   \                                 In  segment BANKED_CODE, align 1, keep-with-next
   \                     ?Subroutine7:
   \   000000   12....       LCALL   ?Subroutine24 & 0xFFFF
   \                     ??CrossCallReturnLabel_65:
   \   000003   22           RET

   \                                 In  segment BANKED_CODE, align 1, keep-with-next
   \                     ?Subroutine24:
   \   000000   12....       LCALL   ?Subroutine28 & 0xFFFF
   \                     ??CrossCallReturnLabel_73:
   \   000003   90....       MOV     DPTR,#Recdata_GPGSV_start
   \   000006   22           RET

   \                                 In  segment BANKED_CODE, align 1, keep-with-next
   \                     ?Subroutine6:
   \   000000   E4           CLR     A
   \   000001   12....       LCALL   ?Subroutine25 & 0xFFFF
   \                     ??CrossCallReturnLabel_68:
   \   000004   F0           MOVX    @DPTR,A
   \   000005   22           RET

   \                                 In  segment BANKED_CODE, align 1, keep-with-next
   \                     ?Subroutine25:
   \   000000   F0           MOVX    @DPTR,A
   \   000001   A3           INC     DPTR
   \   000002   F0           MOVX    @DPTR,A
   \   000003   90....       MOV     DPTR,#Recdata_GPGGA_start
   \   000006   F0           MOVX    @DPTR,A
   \   000007   A3           INC     DPTR
   \   000008   22           RET

   \                                 In  segment BANKED_CODE, align 1, keep-with-next
   \                     ?Subroutine5:
   \   000000   12....       LCALL   ?Subroutine24 & 0xFFFF
   \                     ??CrossCallReturnLabel_66:
   \   000003   E4           CLR     A
   \   000004   12....       LCALL   ?Subroutine23 & 0xFFFF
   \                     ??CrossCallReturnLabel_89:
   \   000007   22           RET

   \                                 In  segment BANKED_CODE, align 1, keep-with-next
   \                     ?Subroutine23:
   \   000000   F0           MOVX    @DPTR,A
   \   000001   A3           INC     DPTR
   \   000002   F0           MOVX    @DPTR,A
   \   000003   90....       MOV     DPTR,#Recdata_GPGSA_start
   \   000006   F0           MOVX    @DPTR,A
   \   000007   A3           INC     DPTR
   \   000008   F0           MOVX    @DPTR,A
   \   000009   22           RET

   \                                 In  segment BANKED_CODE, align 1, keep-with-next
   \                     ?Subroutine4:
   \   000000   F0           MOVX    @DPTR,A
   \   000001   EA           MOV     A,R2
   \   000002   2401         ADD     A,#0x1
   \   000004   0A           INC     R2
   \   000005   EB           MOV     A,R3
   \   000006   3400         ADDC    A,#0x0
   \   000008   FB           MOV     R3,A
   \   000009   12....       LCALL   ?Subroutine27 & 0xFFFF
   \                     ??CrossCallReturnLabel_70:
   \   00000C   22           RET

   \                                 In  segment BANKED_CODE, align 1, keep-with-next
   \                     ?Subroutine27:
   \   000000   E8           MOV     A,R0
   \   000001   2401         ADD     A,#0x1
   \   000003   08           INC     R0
   \   000004   E9           MOV     A,R1
   \   000005   3400         ADDC    A,#0x0
   \   000007   F9           MOV     R1,A
   \   000008   22           RET

   \                                 In  segment BANKED_CODE, align 1, keep-with-next
   \                     ?Subroutine3:
   \   000000   E4           CLR     A
   \   000001                REQUIRE ??Subroutine32_0
   \   000001                ; // Fall through to label ??Subroutine32_0

   \                                 In  segment BANKED_CODE, align 1, keep-with-next
   \                     ??Subroutine32_0:
   \   000000   12....       LCALL   ?Subroutine23 & 0xFFFF
   \                     ??CrossCallReturnLabel_90:
   \   000003   90....       MOV     DPTR,#Recdata_GPRMC_start
   \   000006   12....       LCALL   ?Subroutine26 & 0xFFFF
   \                     ??CrossCallReturnLabel_92:
   \   000009   22           RET

   \                                 In  segment BANKED_CODE, align 1, keep-with-next
   \                     ?Subroutine26:
   \   000000   F0           MOVX    @DPTR,A
   \   000001   A3           INC     DPTR
   \   000002   F0           MOVX    @DPTR,A
   \   000003   90....       MOV     DPTR,#Recdata_GPVTG_start
   \   000006   F0           MOVX    @DPTR,A
   \   000007   A3           INC     DPTR
   \   000008   22           RET

   \                                 In  segment BANKED_CODE, align 1, keep-with-next
   \                     ?Subroutine2:
   \   000000   F0           MOVX    @DPTR,A
   \   000001   12....       LCALL   ?Subroutine27 & 0xFFFF
   \                     ??CrossCallReturnLabel_69:
   \   000004   EA           MOV     A,R2
   \   000005   2401         ADD     A,#0x1
   \   000007   0A           INC     R2
   \   000008   EB           MOV     A,R3
   \   000009   3400         ADDC    A,#0x0
   \   00000B   FB           MOV     R3,A
   \   00000C   22           RET

   \                                 In  segment BANKED_CODE, align 1, keep-with-next
   \                     ?Subroutine1:
   \   000000   90....       MOV     DPTR,#position
   \   000003   E0           MOVX    A,@DPTR
   \   000004   F8           MOV     R0,A
   \   000005   A3           INC     DPTR
   \   000006   E0           MOVX    A,@DPTR
   \   000007   F9           MOV     R1,A
   \   000008   E8           MOV     A,R0
   \   000009   2401         ADD     A,#0x1
   \   00000B   FA           MOV     R2,A
   \   00000C   E9           MOV     A,R1
   \   00000D   3400         ADDC    A,#0x0
   \   00000F   FB           MOV     R3,A
   \   000010   90....       MOV     DPTR,#position
   \   000013   EA           MOV     A,R2
   \   000014   F0           MOVX    @DPTR,A
   \   000015   A3           INC     DPTR
   \   000016   EB           MOV     A,R3
   \   000017   F0           MOVX    @DPTR,A
   \   000018   74..         MOV     A,#Recdata & 0xff
   \   00001A   28           ADD     A,R0
   \   00001B   F582         MOV     DPL,A
   \   00001D   74..         MOV     A,#(Recdata >> 8) & 0xff
   \   00001F   39           ADDC    A,R1
   \   000020   F583         MOV     DPH,A
   \   000022   E0           MOVX    A,@DPTR
   \   000023   6424         XRL     A,#0x24
   \   000025   22           RET

   \                                 In  segment BANKED_CODE, align 1, keep-with-next
    532          void GpsMeasurement_Init( uint8 task_id )
   \                     GpsMeasurement_Init:
    533          {
   \   000000   74F7         MOV     A,#-0x9
   \   000002   12....       LCALL   ?BANKED_ENTER_XDATA
   \   000005                ; Saved register size: 9
   \   000005                ; Auto size: 0
   \   000005   E9           MOV     A,R1
    534            Gps_Uart_TaskID = task_id;
   \   000006   90....       MOV     DPTR,#Gps_Uart_TaskID
   \   000009   F0           MOVX    @DPTR,A
    535            Gps_Uart_TransID = 0;
   \   00000A   90....       MOV     DPTR,#Gps_Uart_TransID
   \   00000D   E4           CLR     A
   \   00000E   F0           MOVX    @DPTR,A
    536          
    537          #if defined ( LCD_SUPPORTED )
    538            //HalLcdWriteString( "TempHumApp", HAL_LCD_LINE_1 );
    539          #endif
    540            
    541            osal_start_timerEx( Gps_Uart_TaskID,
    542                                  GPSMEASUREMENT_EVT,
    543                                  GPSMEASUREMENT_TIMEOUT );
   \   00000F                ; Setup parameters for call to function osal_start_timerEx
   \   00000F   7C90         MOV     R4,#-0x70
   \   000011   7D01         MOV     R5,#0x1
   \   000013   7A01         MOV     R2,#0x1
   \   000015   FB           MOV     R3,A
   \   000016   12....       LCALL   ??osal_start_timerEx?relay
    544            
    545            RegisterForKeys( Gps_Uart_TaskID );
   \   000019                ; Setup parameters for call to function RegisterForKeys
   \   000019   90....       MOV     DPTR,#Gps_Uart_TaskID
   \   00001C   E0           MOVX    A,@DPTR
   \   00001D   F9           MOV     R1,A
   \   00001E   12....       LCALL   ??RegisterForKeys?relay
    546          }
   \   000021   02....       LJMP    ?Subroutine0 & 0xFFFF

   \                                 In  segment BANKED_CODE, align 1, keep-with-next
    547          uint16 GpsMeasurement_ProcessEvent( uint8 task_id, uint16 events )
   \                     GpsMeasurement_ProcessEvent:
    548          {
   \   000000   74F7         MOV     A,#-0x9
   \   000002   12....       LCALL   ?BANKED_ENTER_XDATA
   \   000005                ; Saved register size: 9
   \   000005                ; Auto size: 0
   \   000005   EA           MOV     A,R2
   \   000006   FE           MOV     R6,A
   \   000007   EB           MOV     A,R3
   \   000008   FF           MOV     R7,A
    549            if ( events & GPSMEASUREMENT_EVT )
   \   000009   EE           MOV     A,R6
   \   00000A   A2E0         MOV     C,0xE0 /* A   */.0
   \   00000C   5021         JNC     ??GpsMeasurement_ProcessEvent_0
    550            {
    551          
    552            HalUARTRead(0, Recdata, 300);
   \   00000E                ; Setup parameters for call to function HalUARTRead
   \   00000E   7C2C         MOV     R4,#0x2c
   \   000010   7D01         MOV     R5,#0x1
   \   000012   7A..         MOV     R2,#Recdata & 0xff
   \   000014   7B..         MOV     R3,#(Recdata >> 8) & 0xff
   \   000016   7900         MOV     R1,#0x0
   \   000018   12....       LCALL   ??HalUARTRead?relay
    553            handle();
   \   00001B                ; Setup parameters for call to function handle
   \   00001B   12....       LCALL   ??handle?relay
    554            osal_start_timerEx( Gps_Uart_TaskID,
    555                                  GPSMEASUREMENT_EVT,
    556                                  GPSMEASUREMENT_TIMEOUT );
   \   00001E                ; Setup parameters for call to function osal_start_timerEx
   \   00001E   7C90         MOV     R4,#-0x70
   \   000020   7D01         MOV     R5,#0x1
   \   000022   7A01         MOV     R2,#0x1
   \   000024   7B00         MOV     R3,#0x0
   \   000026   90....       MOV     DPTR,#Gps_Uart_TaskID
   \   000029   12....       LCALL   ?Subroutine14 & 0xFFFF
    557          
    558          
    559          #if defined ( LCD_SUPPORTED )
    560            //HalLcdWriteStringValue("Temp: ", Temp, 10, HAL_LCD_LINE_3);
    561            //HalLcdWriteStringValue("Hum:  ", Hum,  10, HAL_LCD_LINE_4);
    562          #endif
    563          
    564              // return unprocessed events
    565              return (events ^ GPSMEASUREMENT_EVT);
    566            }
   \                     ??CrossCallReturnLabel_44:
   \   00002C   FB           MOV     R3,A
   \   00002D   8004         SJMP    ??GpsMeasurement_ProcessEvent_1
    567          
    568            // Discard unknown events
    569            return 0;
   \                     ??GpsMeasurement_ProcessEvent_0:
   \   00002F   7A00         MOV     R2,#0x0
   \   000031   7B00         MOV     R3,#0x0
   \                     ??GpsMeasurement_ProcessEvent_1:
   \   000033   02....       LJMP    ?Subroutine0 & 0xFFFF
    570          }

   \                                 In  segment XDATA_ID, align 1, keep-with-next
   \                     `?<Initializer for Recdata>`:
   \   000000   4348454E     DB "CHENGDU JIAJIE TECH.INC"
   \            47445520
   \            4A49414A
   \            49452054
   \            4543482E
   \            494E4300
   \   000018   00000000     DB 0, 0, 0, 0, 0, 0, 0, 0
   \            00000000
   \   000020   00000000     DB 0, 0, 0, 0, 0, 0, 0, 0
   \            00000000
   \   000028   00000000     DB 0, 0, 0, 0, 0, 0, 0, 0
   \            00000000
   \   000030   00000000     DB 0, 0, 0, 0, 0, 0, 0, 0
   \            00000000
   \   000038   00000000     DB 0, 0, 0, 0, 0, 0, 0, 0
   \            00000000
   \   000040   00000000     DB 0, 0, 0, 0, 0, 0, 0, 0
   \            00000000
   \   000048   00000000     DB 0, 0, 0, 0, 0, 0, 0, 0
   \            00000000
   \   000050   00000000     DB 0, 0, 0, 0, 0, 0, 0, 0
   \            00000000
   \   000058   00000000     DB 0, 0, 0, 0, 0, 0, 0, 0
   \            00000000
   \   000060   00000000     DB 0, 0, 0, 0, 0, 0, 0, 0
   \            00000000
   \   000068   00000000     DB 0, 0, 0, 0, 0, 0, 0, 0
   \            00000000
   \   000070   00000000     DB 0, 0, 0, 0, 0, 0, 0, 0
   \            00000000
   \   000078   00000000     DB 0, 0, 0, 0, 0, 0, 0, 0
   \            00000000
   \   000080   00000000     DB 0, 0, 0, 0, 0, 0, 0, 0
   \            00000000
   \   000088   00000000     DB 0, 0, 0, 0, 0, 0, 0, 0
   \            00000000
   \   000090   00000000     DB 0, 0, 0, 0, 0, 0, 0, 0
   \            00000000
   \   000098   00000000     DB 0, 0, 0, 0, 0, 0, 0, 0
   \            00000000
   \   0000A0   00000000     DB 0, 0, 0, 0, 0, 0, 0, 0
   \            00000000
   \   0000A8   00000000     DB 0, 0, 0, 0, 0, 0, 0, 0
   \            00000000
   \   0000B0   00000000     DB 0, 0, 0, 0, 0, 0, 0, 0
   \            00000000
   \   0000B8   00000000     DB 0, 0, 0, 0, 0, 0, 0, 0
   \            00000000
   \   0000C0   00000000     DB 0, 0, 0, 0, 0, 0, 0, 0
   \            00000000
   \   0000C8   00000000     DB 0, 0, 0, 0, 0, 0, 0, 0
   \            00000000
   \   0000D0   00000000     DB 0, 0, 0, 0, 0, 0, 0, 0
   \            00000000
   \   0000D8   00000000     DB 0, 0, 0, 0, 0, 0, 0, 0
   \            00000000
   \   0000E0   00000000     DB 0, 0, 0, 0, 0, 0, 0, 0
   \            00000000
   \   0000E8   00000000     DB 0, 0, 0, 0, 0, 0, 0, 0
   \            00000000
   \   0000F0   00000000     DB 0, 0, 0, 0, 0, 0, 0, 0
   \            00000000
   \   0000F8   00000000     DB 0, 0, 0, 0, 0, 0, 0, 0
   \            00000000
   \   000100   00000000     DB 0, 0, 0, 0, 0, 0, 0, 0
   \            00000000
   \   000108   00000000     DB 0, 0, 0, 0, 0, 0, 0, 0
   \            00000000
   \   000110   00000000     DB 0, 0, 0, 0, 0, 0, 0, 0
   \            00000000
   \   000118   00000000     DB 0, 0, 0, 0, 0, 0, 0, 0
   \            00000000
   \   000120   00000000     DB 0, 0, 0, 0, 0, 0, 0, 0
   \            00000000
   \   000128   00000000     DB 0, 0, 0, 0

   \                                 In  segment XDATA_ID, align 1, keep-with-next
   \                     `?<Initializer for Recdata_GPGGA>`:
   \   000000   4348454E     DB "CHENGDU JIAJIE TECH.INC"
   \            47445520
   \            4A49414A
   \            49452054
   \            4543482E
   \            494E4300
   \   000018   00000000     DB 0, 0, 0, 0, 0, 0, 0, 0
   \            00000000
   \   000020   00000000     DB 0, 0, 0, 0, 0, 0, 0, 0
   \            00000000
   \   000028   00000000     DB 0, 0, 0, 0, 0, 0, 0, 0
   \            00000000
   \   000030   00000000     DB 0, 0, 0, 0, 0, 0, 0, 0
   \            00000000
   \   000038   00000000     DB 0, 0, 0, 0, 0, 0, 0, 0
   \            00000000
   \   000040   00000000     DB 0, 0, 0, 0, 0, 0
   \            0000    

   \                                 In  segment XDATA_ID, align 1, keep-with-next
   \                     `?<Initializer for Recdata_GPGSV>`:
   \   000000   4348454E     DB "CHENGDU JIAJIE TECH.INC"
   \            47445520
   \            4A49414A
   \            49452054
   \            4543482E
   \            494E4300
   \   000018   00000000     DB 0, 0, 0, 0, 0, 0, 0, 0
   \            00000000
   \   000020   00000000     DB 0, 0, 0, 0, 0, 0, 0, 0
   \            00000000
   \   000028   00000000     DB 0, 0, 0, 0, 0, 0, 0, 0
   \            00000000
   \   000030   00000000     DB 0, 0, 0, 0, 0, 0, 0, 0
   \            00000000
   \   000038   00000000     DB 0, 0, 0, 0, 0, 0, 0, 0
   \            00000000
   \   000040   00000000     DB 0, 0, 0, 0, 0, 0
   \            0000    

   \                                 In  segment XDATA_ID, align 1, keep-with-next
   \                     `?<Initializer for Recdata_GPGSA>`:
   \   000000   4348454E     DB "CHENGDU JIAJIE TECH.INC"
   \            47445520
   \            4A49414A
   \            49452054
   \            4543482E
   \            494E4300
   \   000018   00000000     DB 0, 0, 0, 0, 0, 0, 0, 0
   \            00000000
   \   000020   00000000     DB 0, 0, 0, 0, 0, 0, 0, 0
   \            00000000
   \   000028   00000000     DB 0, 0, 0, 0, 0, 0, 0, 0
   \            00000000
   \   000030   00000000     DB 0, 0, 0, 0, 0, 0, 0, 0
   \            00000000
   \   000038   00000000     DB 0, 0, 0, 0, 0, 0, 0, 0
   \            00000000
   \   000040   00000000     DB 0, 0, 0, 0, 0, 0
   \            0000    

   \                                 In  segment XDATA_ID, align 1, keep-with-next
   \                     `?<Initializer for Recdata_GPRMC>`:
   \   000000   4348454E     DB "CHENGDU JIAJIE TECH.INC"
   \            47445520
   \            4A49414A
   \            49452054
   \            4543482E
   \            494E4300
   \   000018   00000000     DB 0, 0, 0, 0, 0, 0, 0, 0
   \            00000000
   \   000020   00000000     DB 0, 0, 0, 0, 0, 0, 0, 0
   \            00000000
   \   000028   00000000     DB 0, 0, 0, 0, 0, 0, 0, 0
   \            00000000
   \   000030   00000000     DB 0, 0, 0, 0, 0, 0, 0, 0
   \            00000000
   \   000038   00000000     DB 0, 0, 0, 0, 0, 0, 0, 0
   \            00000000
   \   000040   00000000     DB 0, 0, 0, 0, 0, 0
   \            0000    

   \                                 In  segment XDATA_ID, align 1, keep-with-next
   \                     `?<Initializer for Recdata_GPVTG>`:
   \   000000   4348454E     DB "CHENGDU JIAJIE TECH.INC"
   \            47445520
   \            4A49414A
   \            49452054
   \            4543482E
   \            494E4300
   \   000018   00000000     DB 0, 0, 0, 0, 0, 0, 0, 0
   \            00000000
   \   000020   00000000     DB 0, 0, 0, 0, 0, 0, 0, 0
   \            00000000
   \   000028   00000000     DB 0, 0, 0, 0, 0, 0, 0, 0
   \            00000000
   \   000030   00000000     DB 0, 0, 0, 0, 0, 0, 0, 0
   \            00000000
   \   000038   00000000     DB 0, 0, 0, 0, 0, 0, 0, 0
   \            00000000
   \   000040   00000000     DB 0, 0, 0, 0, 0, 0
   \            0000    

   \                                 In  segment XDATA_ID, align 1, keep-with-next
   \                     `?<Initializer for UTC>`:
   \   000000   30303030     DB 30H, 30H, 30H, 30H, 30H, 30H
   \            3030    

   \                                 In  segment XDATA_ID, align 1, keep-with-next
   \                     `?<Initializer for JingDu>`:
   \   000000   30303030     DB 30H, 30H, 30H, 30H, 30H, 30H, 30H, 30H
   \            30303030
   \   000008   3030         DB 30H, 30H

   \                                 In  segment XDATA_ID, align 1, keep-with-next
   \                     `?<Initializer for WeiDu>`:
   \   000000   30303030     DB 30H, 30H, 30H, 30H, 30H, 30H, 30H, 30H
   \            30303030
   \   000008   30           DB 30H

   \                                 In  segment XDATA_ID, align 1, keep-with-next
   \                     `?<Initializer for GaoDu>`:
   \   000000   30303030     DB 30H, 30H, 30H, 30H, 30H
   \            30      

   \                                 In  segment XDATA_ID, align 1, keep-with-next
   \                     `?<Initializer for WeiXing>`:
   \   000000   3030         DB 30H, 30H

   \                                 In  segment XDATA_ID, align 1, keep-with-next
   \                     `?<Initializer for JiBie>`:
   \   000000   79           DB 79H

   \                                 In  segment XDATA_ID, align 1, keep-with-next
   \                     `?<Initializer for RXTXflag>`:
   \   000000   01           DB 1

   \                                 In  segment XDATA_ID, align 1, keep-with-next
   \                     `?<Initializer for position>`:
   \   000000   0600         DW 6

   \                                 In  segment XDATA_ID, align 1, keep-with-next
   \                     `?<Initializer for flag>`:
   \   000000   30           DB 48

   \                                 In  segment BANK_RELAYS, align 1
   \                     ??Gps_Init?relay:
   \   000000   12....       LCALL   ?BDISPATCH
   \   000003   ......       DC24    Gps_Init

   \                                 In  segment BANK_RELAYS, align 1
   \                     ??Gps_ProcessEvent?relay:
   \   000000   12....       LCALL   ?BDISPATCH
   \   000003   ......       DC24    Gps_ProcessEvent

   \                                 In  segment BANK_RELAYS, align 1
   \                     ??Gps_SendTheMessage?relay:
   \   000000   12....       LCALL   ?BDISPATCH
   \   000003   ......       DC24    Gps_SendTheMessage

   \                                 In  segment BANK_RELAYS, align 1
   \                     ??isDigital?relay:
   \   000000   12....       LCALL   ?BDISPATCH
   \   000003   ......       DC24    isDigital

   \                                 In  segment BANK_RELAYS, align 1
   \                     ??handle?relay:
   \   000000   12....       LCALL   ?BDISPATCH
   \   000003   ......       DC24    handle

   \                                 In  segment BANK_RELAYS, align 1
   \                     ??GpsMeasurement_Init?relay:
   \   000000   12....       LCALL   ?BDISPATCH
   \   000003   ......       DC24    GpsMeasurement_Init

   \                                 In  segment BANK_RELAYS, align 1
   \                     ??GpsMeasurement_ProcessEvent?relay:
   \   000000   12....       LCALL   ?BDISPATCH
   \   000003   ......       DC24    GpsMeasurement_ProcessEvent

   \                                 In  segment XDATA_ROM_C, align 1
   \                     `?<Constant "Gps:">`:
   \   000000   4770733A     DB "Gps:"
   \            00      
   \   000005   00000000     DB 0, 0, 0, 0, 0, 0, 0, 0
   \            00000000
   \   00000D   00000000     DB 0, 0, 0, 0, 0, 0, 0, 0
   \            00000000
   \   000015   00000000     DB 0, 0, 0, 0, 0, 0, 0, 0
   \            00000000
   \   00001D   00000000     DB 0, 0, 0, 0

   Maximum stack usage in bytes:

     Function                    ISTACK PSTACK XSTACK
     --------                    ------ ------ ------
     GpsMeasurement_Init             0      0      9
       -> osal_start_timerEx         0      0     18
       -> RegisterForKeys            0      0     18
     GpsMeasurement_ProcessEvent     0      0      9
       -> HalUARTRead                0      0     18
       -> handle                     0      0     18
       -> osal_start_timerEx         0      0     18
     Gps_Init                        0      0     38
       -> MT_UartInit                0      0     76
       -> MT_UartRegisterTaskID      0      0     76
       -> afRegister                 0      0     76
       -> HalUARTOpen                0      0     76
     Gps_ProcessEvent                0      0     12
       -> osal_msg_receive           0      0     24
       -> osal_set_event             0      0     24
       -> osal_msg_deallocate        0      0     24
       -> osal_msg_receive           0      0     24
       -> Gps_SendTheMessage         0      0     24
       -> osal_start_timerEx         0      0     24
     Gps_SendTheMessage              2      0     76
       -> AF_DataRequest             0      0    128
     handle                          3      0      9
     isDigital                       0      0      0


   Segment part sizes:

     Function/Label                      Bytes
     --------------                      -----
     _A_P1                                  1
     Recdata                              300
     Recdata_GPGGA                         70
     Recdata_GPGGA_start                    2
     Recdata_GPGSV                         70
     Recdata_GPGSV_start                    2
     Recdata_GPGSA                         70
     Recdata_GPGSA_start                    2
     Recdata_GPRMC                         70
     Recdata_GPRMC_start                    2
     Recdata_GPVTG                         70
     Recdata_GPVTG_start                    2
     UTC                                    6
     JingDu                                10
     WeiDu                                  9
     GaoDu                                  5
     WeiXing                                2
     JiBie                                  1
     RXTXflag                               1
     temp                                   1
     datanumber                             2
     stringlen                              2
     check                                  2
     position                               2
     flag                                   1
     Gps_ClusterList                        2
     Gps_SimpleDesc                        12
     TempDATA                               1
     Gps_epDesc                             6
     Gps_TaskID                             1
     Gps_TransID                            1
     Gps_NwkState                           1
     Gps_Uart_TaskID                        1
     Gps_Uart_TransID                       1
     Gps_Init                             107
     ?Subroutine0                           5
     Gps_ProcessEvent                     124
     ?Subroutine14                         11
     Gps_SendTheMessage                   369
     ?Subroutine20                         12
     ?Subroutine19                          6
     ?Subroutine18                         11
     isDigital                             66
     handle                               855
     ?Subroutine22                         14
     ?Subroutine21                          8
     ?Subroutine17                          5
     ??Subroutine29_0                       8
     ?Subroutine16                          5
     ??Subroutine30_0                       3
     ??Subroutine31_0                      14
     ?Subroutine15                          4
     ?Subroutine28                         10
     ?Subroutine13                          9
     ?Subroutine12                         18
     ?Subroutine11                         18
     ?Subroutine10                         18
     ?Subroutine9                          20
     ?Subroutine8                           4
     ?Subroutine7                           4
     ?Subroutine24                          7
     ?Subroutine6                           6
     ?Subroutine25                          9
     ?Subroutine5                           8
     ?Subroutine23                         10
     ?Subroutine4                          13
     ?Subroutine27                          9
     ?Subroutine3                           1
     ??Subroutine32_0                      10
     ?Subroutine26                          9
     ?Subroutine2                          13
     ?Subroutine1                          38
     GpsMeasurement_Init                   36
     GpsMeasurement_ProcessEvent           54
     ?<Initializer for Recdata>           300
     ?<Initializer for Recdata_GPGGA>      70
     ?<Initializer for Recdata_GPGSV>      70
     ?<Initializer for Recdata_GPGSA>      70
     ?<Initializer for Recdata_GPRMC>      70
     ?<Initializer for Recdata_GPVTG>      70
     ?<Initializer for UTC>                 6
     ?<Initializer for JingDu>             10
     ?<Initializer for WeiDu>               9
     ?<Initializer for GaoDu>               5
     ?<Initializer for WeiXing>             2
     ?<Initializer for JiBie>               1
     ?<Initializer for RXTXflag>            1
     ?<Initializer for position>            2
     ?<Initializer for flag>                1
     ??Gps_Init?relay                       6
     ??Gps_ProcessEvent?relay               6
     ??Gps_SendTheMessage?relay             6
     ??isDigital?relay                      6
     ??handle?relay                         6
     ??GpsMeasurement_Init?relay            6
     ??GpsMeasurement_ProcessEvent?relay    6
     ?<Constant "Gps:">                    33

 
 1 951 bytes in segment BANKED_CODE
    42 bytes in segment BANK_RELAYS
     1 byte  in segment SFR_AN
   687 bytes in segment XDATA_I
   687 bytes in segment XDATA_ID
    47 bytes in segment XDATA_ROM_C
    29 bytes in segment XDATA_Z
 
 2 680 bytes of CODE  memory
    47 bytes of CONST memory
     0 bytes of DATA  memory (+ 1 byte shared)
   716 bytes of XDATA memory

Errors: none
Warnings: none
