///////////////////////////////////////////////////////////////////////////////
//                                                                            /
// IAR C/C++ Compiler V8.10.3.10338/W32 for 8051        14/Jul/2014  14:33:36 /
// Copyright 2004-2011 IAR Systems AB.                                        /
//                                                                            /
//    Core               =  plain                                             /
//    Code model         =  banked                                            /
//    Data model         =  large                                             /
//    Calling convention =  xdata reentrant                                   /
//    Constant location  =  data_rom                                          /
//    Dptr setup         =  1,16                                              /
//    Source file        =  C:\Users\OurEDA\Documents\Tencent                 /
//                          Files\1534143789\FileRecv\ZStack-CC2530-2.5.1a\ZS /
//                          tack-CC2530-2.5.1a\Projects\zstack\Samples\06GPS\ /
//                          Source\GPS.c                                      /
//    Command line       =  -f "C:\Users\OurEDA\Documents\Tencent             /
//                          Files\1534143789\FileRecv\ZStack-CC2530-2.5.1a\ZS /
//                          tack-CC2530-2.5.1a\Projects\zstack\Samples\06GPS\ /
//                          CC2530DB\..\..\..\Tools\CC2530DB\f8wEndev.cfg"    /
//                          (-DCPU32MHZ -DROOT=__near_func                    /
//                          -DMAC_CFG_TX_DATA_MAX=3 -DMAC_CFG_TX_MAX=6        /
//                          -DMAC_CFG_RX_MAX=3) -f "C:\Users\OurEDA\Documents /
//                          \Tencent Files\1534143789\FileRecv\ZStack-CC2530- /
//                          2.5.1a\ZStack-CC2530-2.5.1a\Projects\zstack\Sampl /
//                          es\06GPS\CC2530DB\..\..\..\Tools\CC2530DB\f8wConf /
//                          ig.cfg" (-DZIGBEEPRO -DSECURE=0                   /
//                          -DZG_SECURE_DYNAMIC=0 -DREFLECTOR                 /
//                          -DDEFAULT_CHANLIST=0x00000800                     /
//                          -DZDAPP_CONFIG_PAN_ID=0xFFFF                      /
//                          -DNWK_START_DELAY=100 -DEXTENDED_JOINING_RANDOM_M /
//                          ASK=0x007F -DBEACON_REQUEST_DELAY=100             /
//                          -DBEACON_REQ_DELAY_MASK=0x00FF                    /
//                          -DLINK_STATUS_JITTER_MASK=0x007F                  /
//                          -DROUTE_EXPIRY_TIME=30 -DAPSC_ACK_WAIT_DURATION_P /
//                          OLLED=3000 -DNWK_INDIRECT_MSG_TIMEOUT=7           /
//                          -DMAX_RREQ_ENTRIES=8 -DAPSC_MAX_FRAME_RETRIES=3   /
//                          -DNWK_MAX_DATA_RETRIES=2                          /
//                          -DMAX_POLL_FAILURE_RETRIES=2 -DMAX_BCAST=9        /
//                          -DAPS_MAX_GROUPS=16 -DMAX_RTG_ENTRIES=40          /
//                          -DNWK_MAX_BINDING_ENTRIES=4                       /
//                          -DMAX_BINDING_CLUSTER_IDS=4                       /
//                          "-DDEFAULT_KEY={0x01, 0x03, 0x05, 0x07, 0x09,     /
//                          0x0B, 0x0D, 0x0F, 0x00, 0x02, 0x04, 0x06, 0x08,   /
//                          0x0A, 0x0C, 0x0D}" -DMAC_MAX_FRAME_SIZE=116       /
//                          -DZDNWKMGR_MIN_TRANSMISSIONS=20 "-DCONST=const    /
//                          __code" -DGENERIC=__generic                       /
//                          -DRFD_RCVC_ALWAYS_ON=FALSE -DPOLL_RATE=1000       /
//                          -DQUEUED_POLL_RATE=100 -DRESPONSE_POLL_RATE=100)  /
//                          -DREJOIN_POLL_RATE=440 "C:\Users\OurEDA\Documents /
//                          \Tencent Files\1534143789\FileRecv\ZStack-CC2530- /
//                          2.5.1a\ZStack-CC2530-2.5.1a\Projects\zstack\Sampl /
//                          es\06GPS\Source\GPS.c" -D NWK_AUTO_POLL -D        /
//                          ZTOOL_P1 -D MT_TASK -D MT_SYS_FUNC -D             /
//                          MT_ZDO_FUNC -D LCD_SUPPORTED=DEBUG -D             /
//                          xPOWER_SAVING -lC "C:\Users\OurEDA\Documents\Tenc /
//                          ent Files\1534143789\FileRecv\ZStack-CC2530-2.5.1 /
//                          a\ZStack-CC2530-2.5.1a\Projects\zstack\Samples\06 /
//                          GPS\CC2530DB\EndDeviceEB\List\" -lA               /
//                          "C:\Users\OurEDA\Documents\Tencent                /
//                          Files\1534143789\FileRecv\ZStack-CC2530-2.5.1a\ZS /
//                          tack-CC2530-2.5.1a\Projects\zstack\Samples\06GPS\ /
//                          CC2530DB\EndDeviceEB\List\" --diag_suppress       /
//                          Pe001,Pa010 -o "C:\Users\OurEDA\Documents\Tencent /
//                           Files\1534143789\FileRecv\ZStack-CC2530-2.5.1a\Z /
//                          Stack-CC2530-2.5.1a\Projects\zstack\Samples\06GPS /
//                          \CC2530DB\EndDeviceEB\Obj\" -e --no_code_motion   /
//                          --debug --core=plain --dptr=16,1                  /
//                          --data_model=large --code_model=banked            /
//                          --calling_convention=xdata_reentrant              /
//                          --place_constants=data_rom --nr_virtual_regs 16   /
//                          -I "C:\Users\OurEDA\Documents\Tencent             /
//                          Files\1534143789\FileRecv\ZStack-CC2530-2.5.1a\ZS /
//                          tack-CC2530-2.5.1a\Projects\zstack\Samples\06GPS\ /
//                          CC2530DB\" -I "C:\Users\OurEDA\Documents\Tencent  /
//                          Files\1534143789\FileRecv\ZStack-CC2530-2.5.1a\ZS /
//                          tack-CC2530-2.5.1a\Projects\zstack\Samples\06GPS\ /
//                          CC2530DB\..\Source\" -I                           /
//                          "C:\Users\OurEDA\Documents\Tencent                /
//                          Files\1534143789\FileRecv\ZStack-CC2530-2.5.1a\ZS /
//                          tack-CC2530-2.5.1a\Projects\zstack\Samples\06GPS\ /
//                          CC2530DB\..\..\..\ZMain\TI2530DB\" -I             /
//                          "C:\Users\OurEDA\Documents\Tencent                /
//                          Files\1534143789\FileRecv\ZStack-CC2530-2.5.1a\ZS /
//                          tack-CC2530-2.5.1a\Projects\zstack\Samples\06GPS\ /
//                          CC2530DB\..\..\..\..\..\Components\hal\include\"  /
//                          -I "C:\Users\OurEDA\Documents\Tencent             /
//                          Files\1534143789\FileRecv\ZStack-CC2530-2.5.1a\ZS /
//                          tack-CC2530-2.5.1a\Projects\zstack\Samples\06GPS\ /
//                          CC2530DB\..\..\..\..\..\Components\hal\target\CC2 /
//                          530EB\" -I "C:\Users\OurEDA\Documents\Tencent     /
//                          Files\1534143789\FileRecv\ZStack-CC2530-2.5.1a\ZS /
//                          tack-CC2530-2.5.1a\Projects\zstack\Samples\06GPS\ /
//                          CC2530DB\..\..\..\..\..\Components\mac\include\"  /
//                          -I "C:\Users\OurEDA\Documents\Tencent             /
//                          Files\1534143789\FileRecv\ZStack-CC2530-2.5.1a\ZS /
//                          tack-CC2530-2.5.1a\Projects\zstack\Samples\06GPS\ /
//                          CC2530DB\..\..\..\..\..\Components\mac\high_level /
//                          \" -I "C:\Users\OurEDA\Documents\Tencent          /
//                          Files\1534143789\FileRecv\ZStack-CC2530-2.5.1a\ZS /
//                          tack-CC2530-2.5.1a\Projects\zstack\Samples\06GPS\ /
//                          CC2530DB\..\..\..\..\..\Components\mac\low_level\ /
//                          srf04\" -I "C:\Users\OurEDA\Documents\Tencent     /
//                          Files\1534143789\FileRecv\ZStack-CC2530-2.5.1a\ZS /
//                          tack-CC2530-2.5.1a\Projects\zstack\Samples\06GPS\ /
//                          CC2530DB\..\..\..\..\..\Components\mac\low_level\ /
//                          srf04\single_chip\" -I "C:\Users\OurEDA\Documents /
//                          \Tencent Files\1534143789\FileRecv\ZStack-CC2530- /
//                          2.5.1a\ZStack-CC2530-2.5.1a\Projects\zstack\Sampl /
//                          es\06GPS\CC2530DB\..\..\..\..\..\Components\mt\"  /
//                          -I "C:\Users\OurEDA\Documents\Tencent             /
//                          Files\1534143789\FileRecv\ZStack-CC2530-2.5.1a\ZS /
//                          tack-CC2530-2.5.1a\Projects\zstack\Samples\06GPS\ /
//                          CC2530DB\..\..\..\..\..\Components\osal\include\" /
//                           -I "C:\Users\OurEDA\Documents\Tencent            /
//                          Files\1534143789\FileRecv\ZStack-CC2530-2.5.1a\ZS /
//                          tack-CC2530-2.5.1a\Projects\zstack\Samples\06GPS\ /
//                          CC2530DB\..\..\..\..\..\Components\services\saddr /
//                          \" -I "C:\Users\OurEDA\Documents\Tencent          /
//                          Files\1534143789\FileRecv\ZStack-CC2530-2.5.1a\ZS /
//                          tack-CC2530-2.5.1a\Projects\zstack\Samples\06GPS\ /
//                          CC2530DB\..\..\..\..\..\Components\services\sdata /
//                          \" -I "C:\Users\OurEDA\Documents\Tencent          /
//                          Files\1534143789\FileRecv\ZStack-CC2530-2.5.1a\ZS /
//                          tack-CC2530-2.5.1a\Projects\zstack\Samples\06GPS\ /
//                          CC2530DB\..\..\..\..\..\Components\stack\af\" -I  /
//                          "C:\Users\OurEDA\Documents\Tencent                /
//                          Files\1534143789\FileRecv\ZStack-CC2530-2.5.1a\ZS /
//                          tack-CC2530-2.5.1a\Projects\zstack\Samples\06GPS\ /
//                          CC2530DB\..\..\..\..\..\Components\stack\nwk\"    /
//                          -I "C:\Users\OurEDA\Documents\Tencent             /
//                          Files\1534143789\FileRecv\ZStack-CC2530-2.5.1a\ZS /
//                          tack-CC2530-2.5.1a\Projects\zstack\Samples\06GPS\ /
//                          CC2530DB\..\..\..\..\..\Components\stack\sapi\"   /
//                          -I "C:\Users\OurEDA\Documents\Tencent             /
//                          Files\1534143789\FileRecv\ZStack-CC2530-2.5.1a\ZS /
//                          tack-CC2530-2.5.1a\Projects\zstack\Samples\06GPS\ /
//                          CC2530DB\..\..\..\..\..\Components\stack\sec\"    /
//                          -I "C:\Users\OurEDA\Documents\Tencent             /
//                          Files\1534143789\FileRecv\ZStack-CC2530-2.5.1a\ZS /
//                          tack-CC2530-2.5.1a\Projects\zstack\Samples\06GPS\ /
//                          CC2530DB\..\..\..\..\..\Components\stack\sys\"    /
//                          -I "C:\Users\OurEDA\Documents\Tencent             /
//                          Files\1534143789\FileRecv\ZStack-CC2530-2.5.1a\ZS /
//                          tack-CC2530-2.5.1a\Projects\zstack\Samples\06GPS\ /
//                          CC2530DB\..\..\..\..\..\Components\stack\zdo\"    /
//                          -I "C:\Users\OurEDA\Documents\Tencent             /
//                          Files\1534143789\FileRecv\ZStack-CC2530-2.5.1a\ZS /
//                          tack-CC2530-2.5.1a\Projects\zstack\Samples\06GPS\ /
//                          CC2530DB\..\..\..\..\..\Components\zmac\" -I      /
//                          "C:\Users\OurEDA\Documents\Tencent                /
//                          Files\1534143789\FileRecv\ZStack-CC2530-2.5.1a\ZS /
//                          tack-CC2530-2.5.1a\Projects\zstack\Samples\06GPS\ /
//                          CC2530DB\..\..\..\..\..\Components\zmac\f8w\"     /
//                          -Ohz                                              /
//    List file          =  C:\Users\OurEDA\Documents\Tencent                 /
//                          Files\1534143789\FileRecv\ZStack-CC2530-2.5.1a\ZS /
//                          tack-CC2530-2.5.1a\Projects\zstack\Samples\06GPS\ /
//                          CC2530DB\EndDeviceEB\List\GPS.s51                 /
//                                                                            /
//                                                                            /
///////////////////////////////////////////////////////////////////////////////

        NAME GPS

        RTMODEL "__SystemLibrary", "CLib"
        RTMODEL "__calling_convention", "xdata_reentrant"
        RTMODEL "__code_model", "banked"
        RTMODEL "__core", "plain"
        RTMODEL "__data_model", "large"
        RTMODEL "__dptr_size", "16"
        RTMODEL "__extended_stack", "disabled"
        RTMODEL "__location_for_constants", "data"
        RTMODEL "__number_of_dptrs", "1"
        RTMODEL "__rt_version", "1"

        RSEG DOVERLAY:DATA:NOROOT(0)
        RSEG IOVERLAY:IDATA:NOROOT(0)
        RSEG ISTACK:IDATA:NOROOT(0)
        RSEG PSTACK:XDATA:NOROOT(0)
        RSEG XSTACK:XDATA:NOROOT(0)

        EXTERN ?ALLOC_XSTACK8
        EXTERN ?BANKED_ENTER_XDATA
        EXTERN ?BANKED_LEAVE_XDATA
        EXTERN ?BDISPATCH
        EXTERN ?BRET
        EXTERN ?DEALLOC_XSTACK8
        EXTERN ?MOVE_LONG8_XDATA_XDATA
        EXTERN ?PUSH_XSTACK_I_ONE
        EXTERN ?PUSH_XSTACK_I_TWO
        EXTERN ?V0
        EXTERN ?XSP
        EXTERN ?XSTACK_DISP0_8
        EXTERN __INIT_XDATA_I
        EXTERN __INIT_XDATA_Z

        PUBLIC ??GpsMeasurement_Init?relay
        FUNCTION ??GpsMeasurement_Init?relay,0203H
        PUBLIC ??GpsMeasurement_ProcessEvent?relay
        FUNCTION ??GpsMeasurement_ProcessEvent?relay,0203H
        PUBLIC ??Gps_Init?relay
        FUNCTION ??Gps_Init?relay,0203H
        PUBLIC ??Gps_ProcessEvent?relay
        FUNCTION ??Gps_ProcessEvent?relay,0203H
        PUBLIC ??Gps_SendTheMessage?relay
        FUNCTION ??Gps_SendTheMessage?relay,0203H
        PUBLIC ??handle?relay
        FUNCTION ??handle?relay,0203H
        PUBLIC ??isDigital?relay
        FUNCTION ??isDigital?relay,0203H
        PUBLIC GaoDu
        PUBLIC GpsMeasurement_Init
        FUNCTION GpsMeasurement_Init,021203H
        ARGFRAME XSTACK, 0, STACK
        LOCFRAME XSTACK, 9, STACK
        PUBLIC GpsMeasurement_ProcessEvent
        FUNCTION GpsMeasurement_ProcessEvent,021203H
        ARGFRAME XSTACK, 0, STACK
        LOCFRAME XSTACK, 9, STACK
        PUBLIC Gps_ClusterList
        PUBLIC Gps_Init
        FUNCTION Gps_Init,021203H
        ARGFRAME XSTACK, 0, STACK
        LOCFRAME XSTACK, 38, STACK
        PUBLIC Gps_NwkState
        PUBLIC Gps_ProcessEvent
        FUNCTION Gps_ProcessEvent,021203H
        ARGFRAME XSTACK, 0, STACK
        LOCFRAME XSTACK, 12, STACK
        PUBLIC Gps_SendTheMessage
        FUNCTION Gps_SendTheMessage,021203H
        ARGFRAME XSTACK, 12, STACK
        ARGFRAME IOVERLAY, 0, STATIC
        ARGFRAME DOVERLAY, 0, STATIC
        LOCFRAME ISTACK, 2, STACK
        LOCFRAME XSTACK, 64, STACK
        PUBLIC Gps_SimpleDesc
        PUBLIC Gps_TaskID
        PUBLIC Gps_TransID
        PUBLIC Gps_Uart_TaskID
        PUBLIC Gps_Uart_TransID
        PUBLIC Gps_epDesc
        PUBLIC JiBie
        PUBLIC JingDu
        PUBLIC RXTXflag
        PUBLIC Recdata
        PUBLIC Recdata_GPGGA
        PUBLIC Recdata_GPGGA_start
        PUBLIC Recdata_GPGSA
        PUBLIC Recdata_GPGSA_start
        PUBLIC Recdata_GPGSV
        PUBLIC Recdata_GPGSV_start
        PUBLIC Recdata_GPRMC
        PUBLIC Recdata_GPRMC_start
        PUBLIC Recdata_GPVTG
        PUBLIC Recdata_GPVTG_start
        PUBLIC TempDATA
        PUBLIC UTC
        PUBLIC WeiDu
        PUBLIC WeiXing
        PUBWEAK _A_P1
        PUBLIC check
        PUBLIC datanumber
        PUBLIC flag
        PUBLIC handle
        FUNCTION handle,0201H
        ARGFRAME XSTACK, 9, STACK
        ARGFRAME IOVERLAY, 0, STATIC
        ARGFRAME DOVERLAY, 0, STATIC
        LOCFRAME ISTACK, 3, STACK
        PUBLIC isDigital
        FUNCTION isDigital,0203H
        ARGFRAME XSTACK, 0, STACK
        PUBLIC position
        PUBLIC stringlen
        PUBLIC temp
        
        CFI Names cfiNames0
        CFI StackFrame CFA_SP SP IDATA
        CFI StackFrame CFA_PSP16 PSP16 XDATA
        CFI StackFrame CFA_XSP16 XSP16 XDATA
        CFI StaticOverlayFrame CFA_IOVERLAY IOVERLAY
        CFI StaticOverlayFrame CFA_DOVERLAY DOVERLAY
        CFI Resource `PSW.CY`:1, `B.BR0`:1, `B.BR1`:1, `B.BR2`:1, `B.BR3`:1
        CFI Resource `B.BR4`:1, `B.BR5`:1, `B.BR6`:1, `B.BR7`:1, `VB.BR8`:1
        CFI Resource `VB.BR9`:1, `VB.BR10`:1, `VB.BR11`:1, `VB.BR12`:1
        CFI Resource `VB.BR13`:1, `VB.BR14`:1, `VB.BR15`:1, VB:8, B:8, A:8
        CFI Resource PSW:8, DPL0:8, DPH0:8, R0:8, R1:8, R2:8, R3:8, R4:8, R5:8
        CFI Resource R6:8, R7:8, V0:8, V1:8, V2:8, V3:8, V4:8, V5:8, V6:8, V7:8
        CFI Resource V8:8, V9:8, V10:8, V11:8, V12:8, V13:8, V14:8, V15:8, SP:8
        CFI Resource PSPH:8, PSPL:8, PSP16:16, XSPH:8, XSPL:8, XSP16:16
        CFI VirtualResource ?RET:24
        CFI Resource ?BRET_EXT:8
        CFI VirtualResource ?RET_HIGH:8, ?RET_LOW:8
        CFI ResourceParts PSP16 PSPH, PSPL
        CFI ResourceParts XSP16 XSPH, XSPL
        CFI ResourceParts ?RET ?BRET_EXT, ?RET_HIGH, ?RET_LOW
        CFI EndNames cfiNames0
        
        CFI Common cfiCommon0 Using cfiNames0
        CFI CodeAlign 1
        CFI DataAlign -1
        CFI ReturnAddress ?RET CODE
        CFI CFA_DOVERLAY Used
        CFI CFA_IOVERLAY Used
        CFI CFA_SP SP+-3
        CFI CFA_PSP16 PSP16+0
        CFI CFA_XSP16 XSP16+0
        CFI `PSW.CY` SameValue
        CFI `B.BR0` SameValue
        CFI `B.BR1` SameValue
        CFI `B.BR2` SameValue
        CFI `B.BR3` SameValue
        CFI `B.BR4` SameValue
        CFI `B.BR5` SameValue
        CFI `B.BR6` SameValue
        CFI `B.BR7` SameValue
        CFI `VB.BR8` SameValue
        CFI `VB.BR9` SameValue
        CFI `VB.BR10` SameValue
        CFI `VB.BR11` SameValue
        CFI `VB.BR12` SameValue
        CFI `VB.BR13` SameValue
        CFI `VB.BR14` SameValue
        CFI `VB.BR15` SameValue
        CFI VB SameValue
        CFI B Undefined
        CFI A Undefined
        CFI PSW SameValue
        CFI DPL0 SameValue
        CFI DPH0 SameValue
        CFI R0 Undefined
        CFI R1 Undefined
        CFI R2 Undefined
        CFI R3 Undefined
        CFI R4 Undefined
        CFI R5 Undefined
        CFI R6 SameValue
        CFI R7 SameValue
        CFI V0 SameValue
        CFI V1 SameValue
        CFI V2 SameValue
        CFI V3 SameValue
        CFI V4 SameValue
        CFI V5 SameValue
        CFI V6 SameValue
        CFI V7 SameValue
        CFI V8 SameValue
        CFI V9 SameValue
        CFI V10 SameValue
        CFI V11 SameValue
        CFI V12 SameValue
        CFI V13 SameValue
        CFI V14 SameValue
        CFI V15 SameValue
        CFI PSPH Undefined
        CFI PSPL Undefined
        CFI XSPH Undefined
        CFI XSPL Undefined
        CFI ?RET Concat
        CFI ?BRET_EXT Frame(CFA_SP, 3)
        CFI ?RET_HIGH Frame(CFA_SP, 2)
        CFI ?RET_LOW Frame(CFA_SP, 1)
        CFI EndCommon cfiCommon0
        
        
        CFI Common cfiCommon1 Using cfiNames0
        CFI CodeAlign 1
        CFI DataAlign -1
        CFI ReturnAddress ?RET CODE
        CFI CFA_DOVERLAY Used
        CFI CFA_IOVERLAY Used
        CFI CFA_SP SP+-2
        CFI CFA_PSP16 PSP16+0
        CFI CFA_XSP16 XSP16+0
        CFI `PSW.CY` SameValue
        CFI `B.BR0` SameValue
        CFI `B.BR1` SameValue
        CFI `B.BR2` SameValue
        CFI `B.BR3` SameValue
        CFI `B.BR4` SameValue
        CFI `B.BR5` SameValue
        CFI `B.BR6` SameValue
        CFI `B.BR7` SameValue
        CFI `VB.BR8` SameValue
        CFI `VB.BR9` SameValue
        CFI `VB.BR10` SameValue
        CFI `VB.BR11` SameValue
        CFI `VB.BR12` SameValue
        CFI `VB.BR13` SameValue
        CFI `VB.BR14` SameValue
        CFI `VB.BR15` SameValue
        CFI VB SameValue
        CFI B SameValue
        CFI A SameValue
        CFI PSW SameValue
        CFI DPL0 SameValue
        CFI DPH0 SameValue
        CFI R0 SameValue
        CFI R1 SameValue
        CFI R2 SameValue
        CFI R3 SameValue
        CFI R4 SameValue
        CFI R5 SameValue
        CFI R6 SameValue
        CFI R7 SameValue
        CFI V0 SameValue
        CFI V1 SameValue
        CFI V2 SameValue
        CFI V3 SameValue
        CFI V4 SameValue
        CFI V5 SameValue
        CFI V6 SameValue
        CFI V7 SameValue
        CFI V8 SameValue
        CFI V9 SameValue
        CFI V10 SameValue
        CFI V11 SameValue
        CFI V12 SameValue
        CFI V13 SameValue
        CFI V14 SameValue
        CFI V15 SameValue
        CFI PSPH Undefined
        CFI PSPL Undefined
        CFI XSPH Undefined
        CFI XSPL Undefined
        CFI ?RET Concat
        CFI ?BRET_EXT SameValue
        CFI ?RET_HIGH Frame(CFA_SP, 2)
        CFI ?RET_LOW Frame(CFA_SP, 1)
        CFI EndCommon cfiCommon1
        
MT_UartInit         SYMBOL "MT_UartInit"
MT_UartRegisterTaskID SYMBOL "MT_UartRegisterTaskID"
afRegister          SYMBOL "afRegister"
HalUARTOpen         SYMBOL "HalUARTOpen"
osal_msg_receive    SYMBOL "osal_msg_receive"
osal_set_event      SYMBOL "osal_set_event"
osal_msg_deallocate SYMBOL "osal_msg_deallocate"
osal_start_timerEx  SYMBOL "osal_start_timerEx"
AF_DataRequest      SYMBOL "AF_DataRequest"
RegisterForKeys     SYMBOL "RegisterForKeys"
HalUARTRead         SYMBOL "HalUARTRead"
??AF_DataRequest?relay SYMBOL "?relay", AF_DataRequest
??HalUARTOpen?relay SYMBOL "?relay", HalUARTOpen
??HalUARTRead?relay SYMBOL "?relay", HalUARTRead
??MT_UartInit?relay SYMBOL "?relay", MT_UartInit
??MT_UartRegisterTaskID?relay SYMBOL "?relay", MT_UartRegisterTaskID
??RegisterForKeys?relay SYMBOL "?relay", RegisterForKeys
??afRegister?relay  SYMBOL "?relay", afRegister
??osal_msg_deallocate?relay SYMBOL "?relay", osal_msg_deallocate
??osal_msg_receive?relay SYMBOL "?relay", osal_msg_receive
??osal_set_event?relay SYMBOL "?relay", osal_set_event
??osal_start_timerEx?relay SYMBOL "?relay", osal_start_timerEx
GpsMeasurement_Init SYMBOL "GpsMeasurement_Init"
??GpsMeasurement_Init?relay SYMBOL "?relay", GpsMeasurement_Init
GpsMeasurement_ProcessEvent SYMBOL "GpsMeasurement_ProcessEvent"
??GpsMeasurement_ProcessEvent?relay SYMBOL "?relay", GpsMeasurement_ProcessEvent
Gps_Init            SYMBOL "Gps_Init"
??Gps_Init?relay    SYMBOL "?relay", Gps_Init
Gps_ProcessEvent    SYMBOL "Gps_ProcessEvent"
??Gps_ProcessEvent?relay SYMBOL "?relay", Gps_ProcessEvent
Gps_SendTheMessage  SYMBOL "Gps_SendTheMessage"
??Gps_SendTheMessage?relay SYMBOL "?relay", Gps_SendTheMessage
handle              SYMBOL "handle"
??handle?relay      SYMBOL "?relay", handle
isDigital           SYMBOL "isDigital"
??isDigital?relay   SYMBOL "?relay", isDigital

        EXTERN MT_UartInit
        FUNCTION MT_UartInit,0202H
        ARGFRAME ISTACK, 0, STACK
        ARGFRAME PSTACK, 0, STACK
        ARGFRAME XSTACK, 38, STACK
        ARGFRAME IOVERLAY, 0, STATIC
        ARGFRAME DOVERLAY, 0, STATIC
        EXTERN MT_UartRegisterTaskID
        FUNCTION MT_UartRegisterTaskID,0202H
        ARGFRAME ISTACK, 0, STACK
        ARGFRAME PSTACK, 0, STACK
        ARGFRAME XSTACK, 38, STACK
        ARGFRAME IOVERLAY, 0, STATIC
        ARGFRAME DOVERLAY, 0, STATIC
        EXTERN afRegister
        FUNCTION afRegister,0202H
        ARGFRAME ISTACK, 0, STACK
        ARGFRAME PSTACK, 0, STACK
        ARGFRAME XSTACK, 38, STACK
        ARGFRAME IOVERLAY, 0, STATIC
        ARGFRAME DOVERLAY, 0, STATIC
        EXTERN HalUARTOpen
        FUNCTION HalUARTOpen,0202H
        ARGFRAME ISTACK, 0, STACK
        ARGFRAME PSTACK, 0, STACK
        ARGFRAME XSTACK, 38, STACK
        ARGFRAME IOVERLAY, 0, STATIC
        ARGFRAME DOVERLAY, 0, STATIC
        EXTERN osal_msg_receive
        FUNCTION osal_msg_receive,0202H
        ARGFRAME ISTACK, 0, STACK
        ARGFRAME PSTACK, 0, STACK
        ARGFRAME XSTACK, 12, STACK
        ARGFRAME IOVERLAY, 0, STATIC
        ARGFRAME DOVERLAY, 0, STATIC
        EXTERN osal_set_event
        FUNCTION osal_set_event,0202H
        ARGFRAME ISTACK, 0, STACK
        ARGFRAME PSTACK, 0, STACK
        ARGFRAME XSTACK, 12, STACK
        ARGFRAME IOVERLAY, 0, STATIC
        ARGFRAME DOVERLAY, 0, STATIC
        EXTERN osal_msg_deallocate
        FUNCTION osal_msg_deallocate,0202H
        ARGFRAME ISTACK, 0, STACK
        ARGFRAME PSTACK, 0, STACK
        ARGFRAME XSTACK, 12, STACK
        ARGFRAME IOVERLAY, 0, STATIC
        ARGFRAME DOVERLAY, 0, STATIC
        EXTERN osal_start_timerEx
        FUNCTION osal_start_timerEx,0202H
        ARGFRAME ISTACK, 0, STACK
        ARGFRAME PSTACK, 0, STACK
        ARGFRAME XSTACK, 12, STACK
        ARGFRAME IOVERLAY, 0, STATIC
        ARGFRAME DOVERLAY, 0, STATIC
        EXTERN AF_DataRequest
        FUNCTION AF_DataRequest,0202H
        ARGFRAME ISTACK, 0, STACK
        ARGFRAME PSTACK, 0, STACK
        ARGFRAME XSTACK, 64, STACK
        ARGFRAME IOVERLAY, 0, STATIC
        ARGFRAME DOVERLAY, 0, STATIC
        EXTERN RegisterForKeys
        FUNCTION RegisterForKeys,0202H
        ARGFRAME ISTACK, 0, STACK
        ARGFRAME PSTACK, 0, STACK
        ARGFRAME XSTACK, 9, STACK
        ARGFRAME IOVERLAY, 0, STATIC
        ARGFRAME DOVERLAY, 0, STATIC
        EXTERN HalUARTRead
        FUNCTION HalUARTRead,0202H
        ARGFRAME ISTACK, 0, STACK
        ARGFRAME PSTACK, 0, STACK
        ARGFRAME XSTACK, 9, STACK
        ARGFRAME IOVERLAY, 0, STATIC
        ARGFRAME DOVERLAY, 0, STATIC
        EXTERN ??AF_DataRequest?relay
        FUNCTION ??AF_DataRequest?relay,00H
        EXTERN ??HalUARTOpen?relay
        FUNCTION ??HalUARTOpen?relay,00H
        EXTERN ??HalUARTRead?relay
        FUNCTION ??HalUARTRead?relay,00H
        EXTERN ??MT_UartInit?relay
        FUNCTION ??MT_UartInit?relay,00H
        EXTERN ??MT_UartRegisterTaskID?relay
        FUNCTION ??MT_UartRegisterTaskID?relay,00H
        EXTERN ??RegisterForKeys?relay
        FUNCTION ??RegisterForKeys?relay,00H
        EXTERN ??afRegister?relay
        FUNCTION ??afRegister?relay,00H
        EXTERN ??osal_msg_deallocate?relay
        FUNCTION ??osal_msg_deallocate?relay,00H
        EXTERN ??osal_msg_receive?relay
        FUNCTION ??osal_msg_receive?relay,00H
        EXTERN ??osal_set_event?relay
        FUNCTION ??osal_set_event?relay,00H
        EXTERN ??osal_start_timerEx?relay
        FUNCTION ??osal_start_timerEx?relay,00H

// C:\Users\OurEDA\Documents\Tencent Files\1534143789\FileRecv\ZStack-CC2530-2.5.1a\ZStack-CC2530-2.5.1a\Projects\zstack\Samples\06GPS\Source\GPS.c
//    1 /******************************************************************************
//    2   Filename:       Gps.c
//    3   Revised:        $Date: 2012-03-07 01:04:58 -0800 (Wed, 07 Mar 2012) $
//    4   Revision:       $Revision: 29656 $
//    5 
//    6   Description:    Generic Application (no Profile).
//    7 
//    8 
//    9   Copyright 2004-2012 Texas Instruments Incorporated. All rights reserved.
//   10 
//   11   IMPORTANT: Your use of this Software is limited to those specific rights
//   12   granted under the terms of a software license agreement between the user
//   13   who downloaded the software, his/her employer (which must be your employer)
//   14   and Texas Instruments Incorporated (the "License"). You may not use this
//   15   Software unless you agree to abide by the terms of the License. The License
//   16   limits your use, and you acknowledge, that the Software may not be modified,
//   17   copied or distributed unless embedded on a Texas Instruments microcontroller
//   18   or used solely and exclusively in conjunction with a Texas Instruments radio
//   19   frequency transceiver, which is integrated into your product. Other than for
//   20   the foregoing purpose, you may not use, reproduce, copy, prepare derivative
//   21   works of, modify, distribute, perform, display or sell this Software and/or
//   22   its documentation for any purpose.
//   23 
//   24   YOU FURTHER ACKNOWLEDGE AND AGREE THAT THE SOFTWARE AND DOCUMENTATION ARE
//   25   PROVIDED “AS IS?WITHOUT WARRANTY OF ANY KIND, EITHER EXPRESS OR IMPLIED,
//   26   INCLUDING WITHOUT LIMITATION, ANY WARRANTY OF MERCHANTABILITY, TITLE,
//   27   NON-INFRINGEMENT AND FITNESS FOR A PARTICULAR PURPOSE. IN NO EVENT SHALL
//   28   TEXAS INSTRUMENTS OR ITS LICENSORS BE LIABLE OR OBLIGATED UNDER CONTRACT,
//   29   NEGLIGENCE, STRICT LIABILITY, CONTRIBUTION, BREACH OF WARRANTY, OR OTHER
//   30   LEGAL EQUITABLE THEORY ANY DIRECT OR INDIRECT DAMAGES OR EXPENSES
//   31   INCLUDING BUT NOT LIMITED TO ANY INCIDENTAL, SPECIAL, INDIRECT, PUNITIVE
//   32   OR CONSEQUENTIAL DAMAGES, LOST PROFITS OR LOST DATA, COST OF PROCUREMENT
//   33   OF SUBSTITUTE GOODS, TECHNOLOGY, SERVICES, OR ANY CLAIMS BY THIRD PARTIES
//   34   (INCLUDING BUT NOT LIMITED TO ANY DEFENSE THEREOF), OR OTHER SIMILAR COSTS.
//   35 
//   36   Should you have any questions regarding your right to use this Software,
//   37   contact Texas Instruments Incorporated at www.TI.com.
//   38 ******************************************************************************/
//   39 
//   40 /*********************************************************************
//   41   This application isn't intended to do anything useful, it is
//   42   intended to be a simple example of an application's structure.
//   43 
//   44   This application sends "Hello World" to another "Generic"
//   45   application every 5 seconds.  The application will also
//   46   receives "Hello World" packets.
//   47 
//   48   The "Hello World" messages are sent/received as MSG type message.
//   49 
//   50   This applications doesn't have a profile, so it handles everything
//   51   directly - itself.
//   52 
//   53   Key control:
//   54     SW1:
//   55     SW2:  initiates end device binding
//   56     SW3:
//   57     SW4:  initiates a match description request
//   58 *********************************************************************/
//   59 
//   60 /*********************************************************************
//   61  * INCLUDES
//   62  */
//   63 #include "OSAL.h"
//   64 #include "AF.h"
//   65 #include "ZDApp.h"
//   66 #include "ZDObject.h"
//   67 #include "ZDProfile.h"
//   68 
//   69 #include "Gps.h"
//   70 #include "DebugTrace.h"
//   71 
//   72 #if !defined( WIN32 )
//   73   #include "OnBoard.h"

        ASEGN SFR_AN:DATA:NOROOT,090H
// union <unnamed> volatile __sfr _A_P1
_A_P1:
        DATA8
        DS 1
//   74 #endif
//   75 #include "MT.h"
//   76 #include "mt_uart.h"
//   77 /* HAL */
//   78 #include "hal_lcd.h"
//   79 #include "hal_led.h"
//   80 #include "hal_key.h"
//   81 #include "hal_uart.h"
//   82 
//   83 /* RTOS */
//   84 #if defined( IAR_ARMCM3_LM )
//   85 #include "RTOS_App.h"
//   86 #endif  
//   87 #include<ioCC2530.h>
//   88 #include <string.h>
//   89 #define uint unsigned int
//   90 #define uchar unsigned char
//   91 /*********************************************************************
//   92  * MACROS
//   93  */
//   94 /*********************************************************************
//   95  * DATA
//   96  */
//   97 //char Recdata1[128]="CHENGDU JIAJIE TECH.INC";
//   98 //char Recdata2[128]="CHENGDU JIAJIE TECH.INC";

        RSEG XDATA_I:XDATA:NOROOT(0)
//   99 uchar Recdata[300]="CHENGDU JIAJIE TECH.INC";
Recdata:
        DATA8
        DS 300
        REQUIRE `?<Initializer for Recdata>`
        REQUIRE __INIT_XDATA_I

        RSEG XDATA_I:XDATA:NOROOT(0)
//  100 uchar Recdata_GPGGA[70]="CHENGDU JIAJIE TECH.INC";
Recdata_GPGGA:
        DATA8
        DS 70
        REQUIRE `?<Initializer for Recdata_GPGGA>`
        REQUIRE __INIT_XDATA_I

        RSEG XDATA_Z:XDATA:NOROOT(0)
        DATA16
//  101 uint Recdata_GPGGA_start=0;
Recdata_GPGGA_start:
        DS 2
        REQUIRE __INIT_XDATA_Z

        RSEG XDATA_I:XDATA:NOROOT(0)
//  102 uchar Recdata_GPGSV[70]="CHENGDU JIAJIE TECH.INC";
Recdata_GPGSV:
        DATA8
        DS 70
        REQUIRE `?<Initializer for Recdata_GPGSV>`
        REQUIRE __INIT_XDATA_I

        RSEG XDATA_Z:XDATA:NOROOT(0)
        DATA16
//  103 uint Recdata_GPGSV_start=0;
Recdata_GPGSV_start:
        DS 2
        REQUIRE __INIT_XDATA_Z

        RSEG XDATA_I:XDATA:NOROOT(0)
//  104 uchar Recdata_GPGSA[70]="CHENGDU JIAJIE TECH.INC";
Recdata_GPGSA:
        DATA8
        DS 70
        REQUIRE `?<Initializer for Recdata_GPGSA>`
        REQUIRE __INIT_XDATA_I

        RSEG XDATA_Z:XDATA:NOROOT(0)
        DATA16
//  105 uint Recdata_GPGSA_start=0;
Recdata_GPGSA_start:
        DS 2
        REQUIRE __INIT_XDATA_Z

        RSEG XDATA_I:XDATA:NOROOT(0)
//  106 uchar Recdata_GPRMC[70]="CHENGDU JIAJIE TECH.INC";
Recdata_GPRMC:
        DATA8
        DS 70
        REQUIRE `?<Initializer for Recdata_GPRMC>`
        REQUIRE __INIT_XDATA_I

        RSEG XDATA_Z:XDATA:NOROOT(0)
        DATA16
//  107 uint Recdata_GPRMC_start=0;
Recdata_GPRMC_start:
        DS 2
        REQUIRE __INIT_XDATA_Z

        RSEG XDATA_I:XDATA:NOROOT(0)
//  108 uchar Recdata_GPVTG[70]="CHENGDU JIAJIE TECH.INC";
Recdata_GPVTG:
        DATA8
        DS 70
        REQUIRE `?<Initializer for Recdata_GPVTG>`
        REQUIRE __INIT_XDATA_I

        RSEG XDATA_Z:XDATA:NOROOT(0)
        DATA16
//  109 uint Recdata_GPVTG_start=0;
Recdata_GPVTG_start:
        DS 2
        REQUIRE __INIT_XDATA_Z

        RSEG XDATA_I:XDATA:NOROOT(0)
//  110 uchar UTC[6]="000000";
UTC:
        DATA8
        DS 6
        REQUIRE `?<Initializer for UTC>`
        REQUIRE __INIT_XDATA_I

        RSEG XDATA_I:XDATA:NOROOT(0)
//  111 uchar JingDu[10]="0000000000";
JingDu:
        DATA8
        DS 10
        REQUIRE `?<Initializer for JingDu>`
        REQUIRE __INIT_XDATA_I

        RSEG XDATA_I:XDATA:NOROOT(0)
//  112 uchar WeiDu[9]="000000000";
WeiDu:
        DATA8
        DS 9
        REQUIRE `?<Initializer for WeiDu>`
        REQUIRE __INIT_XDATA_I

        RSEG XDATA_I:XDATA:NOROOT(0)
//  113 uchar GaoDu[5]="00000";
GaoDu:
        DATA8
        DS 5
        REQUIRE `?<Initializer for GaoDu>`
        REQUIRE __INIT_XDATA_I

        RSEG XDATA_I:XDATA:NOROOT(0)
//  114 uchar WeiXing[2]="00";
WeiXing:
        DATA16
        DS 2
        REQUIRE `?<Initializer for WeiXing>`
        REQUIRE __INIT_XDATA_I

        RSEG XDATA_I:XDATA:NOROOT(0)
//  115 uchar JiBie[1]="y";
JiBie:
        DATA8
        DS 1
        REQUIRE `?<Initializer for JiBie>`
        REQUIRE __INIT_XDATA_I

        RSEG XDATA_I:XDATA:NOROOT(0)
//  116 uchar RXTXflag = 1;
RXTXflag:
        DATA8
        DS 1
        REQUIRE `?<Initializer for RXTXflag>`
        REQUIRE __INIT_XDATA_I

        RSEG XDATA_Z:XDATA:NOROOT(0)
        DATA8
//  117 uchar temp;
temp:
        DS 1
        REQUIRE __INIT_XDATA_Z

        RSEG XDATA_Z:XDATA:NOROOT(0)
        DATA16
//  118 uint  datanumber = 0;
datanumber:
        DS 2
        REQUIRE __INIT_XDATA_Z

        RSEG XDATA_Z:XDATA:NOROOT(0)
        DATA16
//  119 uint  stringlen;
stringlen:
        DS 2
        REQUIRE __INIT_XDATA_Z

        RSEG XDATA_Z:XDATA:NOROOT(0)
        DATA16
//  120 uint check=0;
check:
        DS 2
        REQUIRE __INIT_XDATA_Z

        RSEG XDATA_I:XDATA:NOROOT(0)
//  121 uint position=6;
position:
        DATA16
        DS 2
        REQUIRE `?<Initializer for position>`
        REQUIRE __INIT_XDATA_I
//  122 /*********************************************************************
//  123  * CONSTANTS
//  124  */
//  125 
//  126 /*********************************************************************
//  127  * TYPEDEFS
//  128  */
//  129 
//  130 /*********************************************************************
//  131  * GLOBAL VARIABLES
//  132  */
//  133 // This list should be filled with Application specific Cluster IDs.
//  134 #define SEND_DATA_EVENT 0x01

        RSEG XDATA_I:XDATA:NOROOT(0)
//  135 unsigned char flag='0';
flag:
        DATA8
        DS 1
        REQUIRE `?<Initializer for flag>`
        REQUIRE __INIT_XDATA_I

        RSEG XDATA_ROM_C:CONST:REORDER:NOROOT(0)
        DATA16
//  136 const cId_t Gps_ClusterList[Gps_MAX_CLUSTERS] =
Gps_ClusterList:
        DW 4
//  137 {
//  138   Gps_CLUSTERID
//  139 };
//  140 
//  141 
//  142 

        RSEG XDATA_ROM_C:CONST:REORDER:NOROOT(0)
        DATA8
//  143 const SimpleDescriptionFormat_t Gps_SimpleDesc =
Gps_SimpleDesc:
        DB 10
        DATA16
        DW 3844
        DW 1
        DATA8
        DB 0
        DB 0
        DATA16
        DW 0H
        DATA8
        DB 1
        DATA16
        DW Gps_ClusterList
//  144 {
//  145   Gps_ENDPOINT,              //  int Endpoint;
//  146   Gps_PROFID,                //  uint16 AppProfId[2];
//  147   Gps_DEVICEID,              //  uint16 AppDeviceId[2];
//  148   Gps_DEVICE_VERSION,        //  int   AppDevVer:4;
//  149   Gps_FLAGS,                 //  int   AppFlags:4;
//  150   
//  151   
//  152   0,          //  byte  AppNumInClusters;
//  153   (cId_t *)NULL,  //  byte *pAppInClusterList;
//  154   Gps_MAX_CLUSTERS,          //  byte  AppNumInClusters;
//  155   (cId_t *)Gps_ClusterList   //  byte *pAppInClusterList;
//  156 };
//  157 

        RSEG XDATA_Z:XDATA:NOROOT(0)
        DATA8
//  158 unsigned char TempDATA;
TempDATA:
        DS 1
        REQUIRE __INIT_XDATA_Z

        RSEG XDATA_Z:XDATA:NOROOT(0)
        DATA8
//  159 endPointDesc_t Gps_epDesc;
Gps_epDesc:
        DS 6
        REQUIRE __INIT_XDATA_Z

        RSEG XDATA_Z:XDATA:NOROOT(0)
        DATA8
//  160 byte Gps_TaskID;
Gps_TaskID:
        DS 1
        REQUIRE __INIT_XDATA_Z

        RSEG XDATA_Z:XDATA:NOROOT(0)
        DATA8
//  161 byte Gps_TransID;
Gps_TransID:
        DS 1
        REQUIRE __INIT_XDATA_Z

        RSEG XDATA_Z:XDATA:NOROOT(0)
        DATA8
//  162 devStates_t Gps_NwkState;
Gps_NwkState:
        DS 1
        REQUIRE __INIT_XDATA_Z

        RSEG XDATA_Z:XDATA:NOROOT(0)
        DATA8
//  163 byte Gps_Uart_TaskID;
Gps_Uart_TaskID:
        DS 1
        REQUIRE __INIT_XDATA_Z

        RSEG XDATA_Z:XDATA:NOROOT(0)
        DATA8
//  164 byte Gps_Uart_TransID;
Gps_Uart_TransID:
        DS 1
        REQUIRE __INIT_XDATA_Z
//  165 void Gps_MessageMSGCB(afIncomingMSGPacket_t *MSGpkt);
//  166 void Gps_SendTheMessage(void);
//  167 void handle();
//  168 
//  169 
//  170 

        RSEG BANKED_CODE:CODE:NOROOT(0)
//  171 void Gps_Init( byte task_id )
Gps_Init:
        CFI Block cfiBlock0 Using cfiCommon0
        CFI Function Gps_Init
        CODE
//  172 {
        FUNCALL Gps_Init, MT_UartInit
        LOCFRAME ISTACK, 0, STACK
        LOCFRAME PSTACK, 0, STACK
        LOCFRAME XSTACK, 38, STACK
        LOCFRAME IOVERLAY, 0, STATIC
        LOCFRAME DOVERLAY, 0, STATIC
        ARGFRAME ISTACK, 0, STACK
        ARGFRAME PSTACK, 0, STACK
        ARGFRAME XSTACK, 38, STACK
        ARGFRAME IOVERLAY, 0, STATIC
        ARGFRAME DOVERLAY, 0, STATIC
        FUNCALL Gps_Init, MT_UartRegisterTaskID
        LOCFRAME ISTACK, 0, STACK
        LOCFRAME PSTACK, 0, STACK
        LOCFRAME XSTACK, 38, STACK
        LOCFRAME IOVERLAY, 0, STATIC
        LOCFRAME DOVERLAY, 0, STATIC
        ARGFRAME ISTACK, 0, STACK
        ARGFRAME PSTACK, 0, STACK
        ARGFRAME XSTACK, 38, STACK
        ARGFRAME IOVERLAY, 0, STATIC
        ARGFRAME DOVERLAY, 0, STATIC
        FUNCALL Gps_Init, afRegister
        LOCFRAME ISTACK, 0, STACK
        LOCFRAME PSTACK, 0, STACK
        LOCFRAME XSTACK, 38, STACK
        LOCFRAME IOVERLAY, 0, STATIC
        LOCFRAME DOVERLAY, 0, STATIC
        ARGFRAME ISTACK, 0, STACK
        ARGFRAME PSTACK, 0, STACK
        ARGFRAME XSTACK, 38, STACK
        ARGFRAME IOVERLAY, 0, STATIC
        ARGFRAME DOVERLAY, 0, STATIC
        FUNCALL Gps_Init, HalUARTOpen
        LOCFRAME ISTACK, 0, STACK
        LOCFRAME PSTACK, 0, STACK
        LOCFRAME XSTACK, 38, STACK
        LOCFRAME IOVERLAY, 0, STATIC
        LOCFRAME DOVERLAY, 0, STATIC
        ARGFRAME ISTACK, 0, STACK
        ARGFRAME PSTACK, 0, STACK
        ARGFRAME XSTACK, 38, STACK
        ARGFRAME IOVERLAY, 0, STATIC
        ARGFRAME DOVERLAY, 0, STATIC
        MOV     A,#-0x9
        LCALL   ?BANKED_ENTER_XDATA
        CFI DPH0 load(1, XDATA, add(CFA_XSP16, literal(-1)))
        CFI DPL0 load(1, XDATA, add(CFA_XSP16, literal(-2)))
        CFI ?BRET_EXT load(1, XDATA, add(CFA_XSP16, literal(-3)))
        CFI ?RET_HIGH load(1, XDATA, add(CFA_XSP16, literal(-4)))
        CFI ?RET_LOW load(1, XDATA, add(CFA_XSP16, literal(-5)))
        CFI R7 load(1, XDATA, add(CFA_XSP16, literal(-6)))
        CFI V0 load(1, XDATA, add(CFA_XSP16, literal(-7)))
        CFI VB load(1, XDATA, add(CFA_XSP16, literal(-8)))
        CFI R6 load(1, XDATA, add(CFA_XSP16, literal(-9)))
        CFI CFA_SP SP+0
        CFI CFA_XSP16 add(XSP16, 9)
        ; Saved register size: 9
        ; Auto size: 29
        MOV     A,#-0x1d
        LCALL   ?ALLOC_XSTACK8
        CFI CFA_XSP16 add(XSP16, 38)
        MOV     A,R1
        MOV     R6,A
//  173   halUARTCfg_t uartConfig;//´®¿Ú
//  174     
//  175   Gps_TaskID = task_id;
        MOV     DPTR,#Gps_TaskID
        MOVX    @DPTR,A
//  176   Gps_NwkState=DEV_INIT;
        MOV     DPTR,#Gps_NwkState
        MOV     A,#0x1
        MOVX    @DPTR,A
//  177   Gps_TransID = 0;
        MOV     DPTR,#Gps_TransID
        CLR     A
        MOVX    @DPTR,A
//  178 
//  179   MT_UartInit();
        ; Setup parameters for call to function MT_UartInit
        LCALL   ??MT_UartInit?relay
//  180   //initUARTSEND();
//  181   MT_UartRegisterTaskID(task_id);
        ; Setup parameters for call to function MT_UartRegisterTaskID
        MOV     A,R6
        MOV     R1,A
        LCALL   ??MT_UartRegisterTaskID?relay
//  182   
//  183   Gps_epDesc.endPoint = Gps_ENDPOINT;
        MOV     DPTR,#Gps_epDesc
        MOV     A,#0xa
        MOVX    @DPTR,A
//  184   Gps_epDesc.task_id = &Gps_TaskID;
        INC     DPTR
        MOV     A,#Gps_TaskID & 0xff
        MOVX    @DPTR,A
        INC     DPTR
        MOV     A,#(Gps_TaskID >> 8) & 0xff
        MOVX    @DPTR,A
//  185   Gps_epDesc.simpleDesc
//  186             = (SimpleDescriptionFormat_t *)&Gps_SimpleDesc;
        INC     DPTR
        MOV     A,#Gps_SimpleDesc & 0xff
        MOVX    @DPTR,A
        INC     DPTR
        MOV     A,#(Gps_SimpleDesc >> 8) & 0xff
        MOVX    @DPTR,A
//  187   
//  188   Gps_epDesc.latencyReq = noLatencyReqs;
        INC     DPTR
        CLR     A
        MOVX    @DPTR,A
//  189   afRegister( &Gps_epDesc ); 
        ; Setup parameters for call to function afRegister
        MOV     R2,#Gps_epDesc & 0xff
        MOV     R3,#(Gps_epDesc >> 8) & 0xff
        LCALL   ??afRegister?relay
//  190   uartConfig.configured = TRUE;
        MOV     DPL,?XSP + 0
        MOV     DPH,?XSP + 1
        MOV     A,#0x1
        MOVX    @DPTR,A
//  191   uartConfig.baudRate = HAL_UART_BR_9600;
        LCALL   ?XSTACK_DISP0_8
        CLR     A
        MOVX    @DPTR,A
//  192   uartConfig.flowControl = FALSE;
        MOV     A,#0x2
        LCALL   ?XSTACK_DISP0_8
        CLR     A
        MOVX    @DPTR,A
//  193   //uartConfig.callBackFunc         = rxCB;
//  194   HalUARTOpen(0,&uartConfig);
        ; Setup parameters for call to function HalUARTOpen
        MOV     DPL,?XSP + 0
        MOV     DPH,?XSP + 1
        MOV     R2,DPL
        MOV     R3,DPH
        MOV     R1,A
        LCALL   ??HalUARTOpen?relay
//  195 
//  196 }
        MOV     A,#0x1d
        LCALL   ?DEALLOC_XSTACK8
        CFI EndBlock cfiBlock0
        REQUIRE ?Subroutine0
        ; // Fall through to label ?Subroutine0

        RSEG BANKED_CODE:CODE:NOROOT(0)
?Subroutine0:
        CFI Block cfiBlock1 Using cfiCommon0
        CFI NoFunction
        CFI CFA_SP SP+0
        CFI CFA_XSP16 add(XSP16, 9)
        CFI VB load(1, XDATA, add(CFA_XSP16, literal(-8)))
        CFI DPL0 load(1, XDATA, add(CFA_XSP16, literal(-2)))
        CFI DPH0 load(1, XDATA, add(CFA_XSP16, literal(-1)))
        CFI R6 load(1, XDATA, add(CFA_XSP16, literal(-9)))
        CFI R7 load(1, XDATA, add(CFA_XSP16, literal(-6)))
        CFI V0 load(1, XDATA, add(CFA_XSP16, literal(-7)))
        CFI ?BRET_EXT load(1, XDATA, add(CFA_XSP16, literal(-3)))
        CFI ?RET_HIGH load(1, XDATA, add(CFA_XSP16, literal(-4)))
        CFI ?RET_LOW load(1, XDATA, add(CFA_XSP16, literal(-5)))
        MOV     R7,#0x1
        LJMP    ?BANKED_LEAVE_XDATA
        CFI EndBlock cfiBlock1
//  197 

        RSEG BANKED_CODE:CODE:NOROOT(0)
//  198 UINT16 Gps_ProcessEvent( byte task_id, UINT16 events )
Gps_ProcessEvent:
        CFI Block cfiBlock2 Using cfiCommon0
        CFI Function Gps_ProcessEvent
        CODE
//  199 {
        FUNCALL Gps_ProcessEvent, osal_msg_receive
        LOCFRAME ISTACK, 0, STACK
        LOCFRAME PSTACK, 0, STACK
        LOCFRAME XSTACK, 12, STACK
        LOCFRAME IOVERLAY, 0, STATIC
        LOCFRAME DOVERLAY, 0, STATIC
        ARGFRAME ISTACK, 0, STACK
        ARGFRAME PSTACK, 0, STACK
        ARGFRAME XSTACK, 12, STACK
        ARGFRAME IOVERLAY, 0, STATIC
        ARGFRAME DOVERLAY, 0, STATIC
        FUNCALL Gps_ProcessEvent, osal_set_event
        LOCFRAME ISTACK, 0, STACK
        LOCFRAME PSTACK, 0, STACK
        LOCFRAME XSTACK, 12, STACK
        LOCFRAME IOVERLAY, 0, STATIC
        LOCFRAME DOVERLAY, 0, STATIC
        ARGFRAME ISTACK, 0, STACK
        ARGFRAME PSTACK, 0, STACK
        ARGFRAME XSTACK, 12, STACK
        ARGFRAME IOVERLAY, 0, STATIC
        ARGFRAME DOVERLAY, 0, STATIC
        FUNCALL Gps_ProcessEvent, osal_msg_deallocate
        LOCFRAME ISTACK, 0, STACK
        LOCFRAME PSTACK, 0, STACK
        LOCFRAME XSTACK, 12, STACK
        LOCFRAME IOVERLAY, 0, STATIC
        LOCFRAME DOVERLAY, 0, STATIC
        ARGFRAME ISTACK, 0, STACK
        ARGFRAME PSTACK, 0, STACK
        ARGFRAME XSTACK, 12, STACK
        ARGFRAME IOVERLAY, 0, STATIC
        ARGFRAME DOVERLAY, 0, STATIC
        FUNCALL Gps_ProcessEvent, osal_msg_receive
        LOCFRAME ISTACK, 0, STACK
        LOCFRAME PSTACK, 0, STACK
        LOCFRAME XSTACK, 12, STACK
        LOCFRAME IOVERLAY, 0, STATIC
        LOCFRAME DOVERLAY, 0, STATIC
        ARGFRAME ISTACK, 0, STACK
        ARGFRAME PSTACK, 0, STACK
        ARGFRAME XSTACK, 12, STACK
        ARGFRAME IOVERLAY, 0, STATIC
        ARGFRAME DOVERLAY, 0, STATIC
        FUNCALL Gps_ProcessEvent, Gps_SendTheMessage
        LOCFRAME ISTACK, 0, STACK
        LOCFRAME PSTACK, 0, STACK
        LOCFRAME XSTACK, 12, STACK
        LOCFRAME IOVERLAY, 0, STATIC
        LOCFRAME DOVERLAY, 0, STATIC
        ARGFRAME ISTACK, 0, STACK
        ARGFRAME PSTACK, 0, STACK
        ARGFRAME XSTACK, 12, STACK
        ARGFRAME IOVERLAY, 0, STATIC
        ARGFRAME DOVERLAY, 0, STATIC
        FUNCALL Gps_ProcessEvent, osal_start_timerEx
        LOCFRAME ISTACK, 0, STACK
        LOCFRAME PSTACK, 0, STACK
        LOCFRAME XSTACK, 12, STACK
        LOCFRAME IOVERLAY, 0, STATIC
        LOCFRAME DOVERLAY, 0, STATIC
        ARGFRAME ISTACK, 0, STACK
        ARGFRAME PSTACK, 0, STACK
        ARGFRAME XSTACK, 12, STACK
        ARGFRAME IOVERLAY, 0, STATIC
        ARGFRAME DOVERLAY, 0, STATIC
        MOV     A,#-0xc
        LCALL   ?BANKED_ENTER_XDATA
        CFI DPH0 load(1, XDATA, add(CFA_XSP16, literal(-1)))
        CFI DPL0 load(1, XDATA, add(CFA_XSP16, literal(-2)))
        CFI ?BRET_EXT load(1, XDATA, add(CFA_XSP16, literal(-3)))
        CFI ?RET_HIGH load(1, XDATA, add(CFA_XSP16, literal(-4)))
        CFI ?RET_LOW load(1, XDATA, add(CFA_XSP16, literal(-5)))
        CFI R7 load(1, XDATA, add(CFA_XSP16, literal(-6)))
        CFI V3 load(1, XDATA, add(CFA_XSP16, literal(-7)))
        CFI V2 load(1, XDATA, add(CFA_XSP16, literal(-8)))
        CFI V1 load(1, XDATA, add(CFA_XSP16, literal(-9)))
        CFI V0 load(1, XDATA, add(CFA_XSP16, literal(-10)))
        CFI VB load(1, XDATA, add(CFA_XSP16, literal(-11)))
        CFI R6 load(1, XDATA, add(CFA_XSP16, literal(-12)))
        CFI CFA_SP SP+0
        CFI CFA_XSP16 add(XSP16, 12)
        ; Saved register size: 12
        ; Auto size: 0
        MOV     A,R2
        MOV     R6,A
        MOV     A,R3
        MOV     R7,A
//  200   afIncomingMSGPacket_t *MSGpkt;
//  201 
//  202   if ( events & SYS_EVENT_MSG )
        ANL     A,#0x80
        JZ      ??Gps_ProcessEvent_0
//  203   {
//  204     MSGpkt = (afIncomingMSGPacket_t *)osal_msg_receive( Gps_TaskID );
        ; Setup parameters for call to function osal_msg_receive
        SJMP    ??Gps_ProcessEvent_1
//  205     while ( MSGpkt )
//  206     {
//  207       switch ( MSGpkt->hdr.event )
??Gps_ProcessEvent_2:
        MOV     DPL,?V0 + 0
        MOV     DPH,?V0 + 1
        MOVX    A,@DPTR
        XRL     A,#0xd1
        JNZ     ??Gps_ProcessEvent_3
//  208       {
//  209        
//  210           case ZDO_STATE_CHANGE:
//  211             Gps_NwkState = (devStates_t)(MSGpkt->hdr.status);
        INC     DPTR
        MOVX    A,@DPTR
        MOV     DPTR,#Gps_NwkState
        MOVX    @DPTR,A
//  212             if(Gps_NwkState==DEV_END_DEVICE)
        XRL     A,#0x6
        JNZ     ??Gps_ProcessEvent_3
//  213             {
//  214               P1_0=~P1_0;
        SETB    B.0
        MOV     C,0x90.0
        JNB     B.0,??Gps_ProcessEvent_4
        CPL     C
??Gps_ProcessEvent_4:
        MOV     0x90.0,C
//  215               osal_set_event(Gps_TaskID,SEND_DATA_EVENT);
        ; Setup parameters for call to function osal_set_event
        MOV     R2,#0x1
        MOV     R3,#0x0
        MOV     DPTR,#Gps_TaskID
        MOVX    A,@DPTR
        MOV     R1,A
        LCALL   ??osal_set_event?relay
//  216             }
//  217             break;
//  218             
//  219           default:
//  220             break;
//  221       }
//  222       osal_msg_deallocate( (uint8 *)MSGpkt );
??Gps_ProcessEvent_3:
        ; Setup parameters for call to function osal_msg_deallocate
        MOV     R2,?V0 + 0
        MOV     R3,?V0 + 1
        LCALL   ??osal_msg_deallocate?relay
//  223       MSGpkt = (afIncomingMSGPacket_t *)osal_msg_receive( Gps_TaskID );
        ; Setup parameters for call to function osal_msg_receive
??Gps_ProcessEvent_1:
        MOV     DPTR,#Gps_TaskID
        MOVX    A,@DPTR
        MOV     R1,A
        LCALL   ??osal_msg_receive?relay
        MOV     ?V0 + 0,R2
        MOV     ?V0 + 1,R3
//  224     }
        MOV     A,?V0 + 0
        ORL     A,?V0 + 1
        JNZ     ??Gps_ProcessEvent_2
//  225     // return unprocessed events
//  226     return (events ^ SYS_EVENT_MSG);
        MOV     A,R6
        MOV     R2,A
        MOV     A,R7
        XRL     A,#0x80
??Gps_ProcessEvent_5:
        MOV     R3,A
        SJMP    ??Gps_ProcessEvent_6
//  227   }
//  228   if(events&SEND_DATA_EVENT)
??Gps_ProcessEvent_0:
        MOV     A,R6
        MOV     C,0xE0 /* A   */.0
        JNC     ??Gps_ProcessEvent_7
//  229   {
//  230     //HalUARTRead(0, Recdata, 300);
//  231     //HalUARTRead(0, Recdata2, 128);
//  232     /*for(uint i=0;i<128;i++)
//  233       Recdata[i]=Recdata1[i];
//  234     for(uint i=0;i<128;i++)
//  235       Recdata[i+128]=Recdata2[i];*/
//  236     //handle();
//  237     Gps_SendTheMessage();
        ; Setup parameters for call to function Gps_SendTheMessage
        LCALL   ??Gps_SendTheMessage?relay
//  238     osal_start_timerEx(Gps_TaskID,SEND_DATA_EVENT,Gps_SEND_MSG_TIMEOUT);
        ; Setup parameters for call to function osal_start_timerEx
        MOV     R4,#-0x6c
        MOV     R5,#0x11
        MOV     R2,#0x1
        MOV     R3,#0x0
        MOV     DPTR,#Gps_TaskID
        LCALL   ?Subroutine14 & 0xFFFF
//  239     return(events^SEND_DATA_EVENT);
//  240   }
??CrossCallReturnLabel_43:
        SJMP    ??Gps_ProcessEvent_5
//  241   return 0;
??Gps_ProcessEvent_7:
        MOV     R2,#0x0
        MOV     R3,#0x0
??Gps_ProcessEvent_6:
        MOV     R7,#0x4
        LJMP    ?BANKED_LEAVE_XDATA
        CFI EndBlock cfiBlock2
        REQUIRE _A_P1
//  242 }
//  243 

        RSEG BANKED_CODE:CODE:NOROOT(0)
//  244 void Gps_SendTheMessage(void)
Gps_SendTheMessage:
        CFI Block cfiBlock3 Using cfiCommon0
        CFI Function Gps_SendTheMessage
        CODE
//  245 { 
        FUNCALL Gps_SendTheMessage, AF_DataRequest
        LOCFRAME ISTACK, 0, STACK
        LOCFRAME PSTACK, 0, STACK
        LOCFRAME XSTACK, 64, STACK
        LOCFRAME IOVERLAY, 0, STATIC
        LOCFRAME DOVERLAY, 0, STATIC
        ARGFRAME ISTACK, 0, STACK
        ARGFRAME PSTACK, 0, STACK
        ARGFRAME XSTACK, 64, STACK
        ARGFRAME IOVERLAY, 0, STATIC
        ARGFRAME DOVERLAY, 0, STATIC
        MOV     A,#-0xa
        LCALL   ?BANKED_ENTER_XDATA
        CFI DPH0 load(1, XDATA, add(CFA_XSP16, literal(-1)))
        CFI DPL0 load(1, XDATA, add(CFA_XSP16, literal(-2)))
        CFI ?BRET_EXT load(1, XDATA, add(CFA_XSP16, literal(-3)))
        CFI ?RET_HIGH load(1, XDATA, add(CFA_XSP16, literal(-4)))
        CFI ?RET_LOW load(1, XDATA, add(CFA_XSP16, literal(-5)))
        CFI R7 load(1, XDATA, add(CFA_XSP16, literal(-6)))
        CFI V1 load(1, XDATA, add(CFA_XSP16, literal(-7)))
        CFI V0 load(1, XDATA, add(CFA_XSP16, literal(-8)))
        CFI VB load(1, XDATA, add(CFA_XSP16, literal(-9)))
        CFI R6 load(1, XDATA, add(CFA_XSP16, literal(-10)))
        CFI CFA_SP SP+0
        CFI CFA_XSP16 add(XSP16, 10)
        ; Saved register size: 10
        ; Auto size: 45
        MOV     A,#-0x2d
        LCALL   ?ALLOC_XSTACK8
        CFI CFA_XSP16 add(XSP16, 55)
//  246   unsigned char theMessageData[33] = "Gps:";
        MOV     A,#0xc
        LCALL   ?XSTACK_DISP0_8
        MOV     R4,DPL
        MOV     R5,DPH
        MOV     DPH,#(`?<Constant "Gps:">` >> 8) & 0xff
        MOV     DPL,#`?<Constant "Gps:">` & 0xff
        MOV     A,#0x21
        LCALL   ?MOVE_LONG8_XDATA_XDATA
//  247   for (unsigned char i=0;i<6;i++)
        MOV     R2,A
//  248     theMessageData[i]=UTC[i];
??Gps_SendTheMessage_0:
        MOV     DPL,R2
        MOV     R0,DPL
        MOV     A,#UTC & 0xff
        ADD     A,R0
        MOV     DPL,A
        MOV     A,#(UTC >> 8) & 0xff
        LCALL   ?Subroutine19 & 0xFFFF
??CrossCallReturnLabel_50:
        PUSH    A
        CFI CFA_SP SP+-1
        MOV     A,#0xc
        LCALL   ?XSTACK_DISP0_8
        LCALL   ?Subroutine20 & 0xFFFF
??CrossCallReturnLabel_55:
        POP     A
        CFI CFA_SP SP+0
        MOVX    @DPTR,A
        INC     R2
        MOV     A,R2
        CLR     C
        SUBB    A,#0x6
        JC      ??Gps_SendTheMessage_0
//  249   for (unsigned char i=0;i<9;i++)
        MOV     R2,#0x0
//  250     theMessageData[i+6]=WeiDu[i];
??Gps_SendTheMessage_1:
        MOV     DPL,R2
        MOV     R0,DPL
        MOV     A,#WeiDu & 0xff
        ADD     A,R0
        MOV     DPL,A
        MOV     A,#(WeiDu >> 8) & 0xff
        LCALL   ?Subroutine19 & 0xFFFF
??CrossCallReturnLabel_51:
        PUSH    A
        CFI CFA_SP SP+-1
        MOV     A,#0xc
        LCALL   ?XSTACK_DISP0_8
        LCALL   ?Subroutine20 & 0xFFFF
??CrossCallReturnLabel_56:
        INC     DPTR
        INC     DPTR
        INC     DPTR
        INC     DPTR
        INC     DPTR
        INC     DPTR
        POP     A
        CFI CFA_SP SP+0
        MOVX    @DPTR,A
        INC     R2
        MOV     A,R2
        CLR     C
        SUBB    A,#0x9
        JC      ??Gps_SendTheMessage_1
//  251   for (unsigned char i=0;i<10;i++)
        MOV     R2,#0x0
//  252     theMessageData[i+15]=JingDu[i];
??Gps_SendTheMessage_2:
        MOV     DPL,R2
        MOV     R0,DPL
        MOV     A,#JingDu & 0xff
        ADD     A,R0
        MOV     DPL,A
        MOV     A,#(JingDu >> 8) & 0xff
        LCALL   ?Subroutine19 & 0xFFFF
??CrossCallReturnLabel_52:
        PUSH    A
        CFI CFA_SP SP+-1
        MOV     A,#0xc
        LCALL   ?XSTACK_DISP0_8
        LCALL   ?Subroutine18 & 0xFFFF
??CrossCallReturnLabel_47:
        ADD     A,#0xf
        MOV     DPL,A
        MOV     A,R1
        ADDC    A,#0x0
        MOV     DPH,A
        POP     A
        CFI CFA_SP SP+0
        MOVX    @DPTR,A
        INC     R2
        MOV     A,R2
        CLR     C
        SUBB    A,#0xa
        JC      ??Gps_SendTheMessage_2
//  253   for (unsigned char i=0;i<1;i++)
//  254     theMessageData[i+25]=JiBie[i];
        MOV     DPTR,#JiBie
        MOVX    A,@DPTR
        PUSH    A
        CFI CFA_SP SP+-1
        MOV     A,#0x25
        LCALL   ?XSTACK_DISP0_8
        POP     A
        CFI CFA_SP SP+0
        MOVX    @DPTR,A
//  255   for (unsigned char i=0;i<2;i++)
        MOV     R2,#0x0
//  256     theMessageData[i+26]=WeiXing[i];
??Gps_SendTheMessage_3:
        MOV     DPL,R2
        MOV     R0,DPL
        MOV     A,#WeiXing & 0xff
        ADD     A,R0
        MOV     DPL,A
        MOV     A,#(WeiXing >> 8) & 0xff
        LCALL   ?Subroutine19 & 0xFFFF
??CrossCallReturnLabel_53:
        PUSH    A
        CFI CFA_SP SP+-1
        MOV     A,#0xc
        LCALL   ?XSTACK_DISP0_8
        LCALL   ?Subroutine18 & 0xFFFF
??CrossCallReturnLabel_48:
        ADD     A,#0x1a
        MOV     DPL,A
        MOV     A,R1
        ADDC    A,#0x0
        MOV     DPH,A
        POP     A
        CFI CFA_SP SP+0
        MOVX    @DPTR,A
        INC     R2
        MOV     A,R2
        CLR     C
        SUBB    A,#0x2
        JC      ??Gps_SendTheMessage_3
//  257   for (unsigned char i=0;i<5;i++)
        MOV     R2,#0x0
//  258     theMessageData[i+28]=GaoDu[i];
??Gps_SendTheMessage_4:
        MOV     DPL,R2
        MOV     R0,DPL
        MOV     A,#GaoDu & 0xff
        ADD     A,R0
        MOV     DPL,A
        MOV     A,#(GaoDu >> 8) & 0xff
        LCALL   ?Subroutine19 & 0xFFFF
??CrossCallReturnLabel_54:
        PUSH    A
        CFI CFA_SP SP+-1
        MOV     A,#0xc
        LCALL   ?XSTACK_DISP0_8
        LCALL   ?Subroutine18 & 0xFFFF
??CrossCallReturnLabel_49:
        ADD     A,#0x1c
        MOV     DPL,A
        MOV     A,R1
        ADDC    A,#0x0
        MOV     DPH,A
        POP     A
        CFI CFA_SP SP+0
        MOVX    @DPTR,A
        INC     R2
        MOV     A,R2
        CLR     C
        SUBB    A,#0x5
        JC      ??Gps_SendTheMessage_4
//  259 
//  260   afAddrType_t my_DstAddr;
//  261 
//  262   my_DstAddr.addrMode=(afAddrMode_t)Addr16Bit;
        MOV     A,#0x8
        LCALL   ?XSTACK_DISP0_8
        MOV     A,#0x2
        MOVX    @DPTR,A
//  263   my_DstAddr.endPoint=Gps_ENDPOINT;
        MOV     A,#0x9
        LCALL   ?XSTACK_DISP0_8
        MOV     A,#0xa
        MOVX    @DPTR,A
//  264   my_DstAddr.addr.shortAddr=0x0000; 
        MOV     DPL,?XSP + 0
        MOV     DPH,?XSP + 1
        CLR     A
        MOVX    @DPTR,A
        INC     DPTR
        MOVX    @DPTR,A
//  265 
//  266 
//  267   //theMessageData[0]=flag;
//  268 
//  269   AF_DataRequest(&my_DstAddr
//  270   ,&Gps_epDesc
//  271   ,Gps_CLUSTERID
//  272   ,33
//  273   ,theMessageData
//  274   ,&Gps_TransID
//  275   ,AF_DISCV_ROUTE
//  276   ,AF_DEFAULT_RADIUS);
        ; Setup parameters for call to function AF_DataRequest
        MOV     ?V0 + 0,#0x1e
        MOV     R0,#?V0 + 0
        LCALL   ?PUSH_XSTACK_I_ONE
        CFI CFA_XSP16 add(XSP16, 56)
        MOV     ?V0 + 0,#Gps_TransID & 0xff
        MOV     ?V0 + 1,#(Gps_TransID >> 8) & 0xff
        MOV     R0,#?V0 + 0
        LCALL   ?PUSH_XSTACK_I_TWO
        CFI CFA_XSP16 add(XSP16, 58)
        MOV     A,#0xf
        LCALL   ?XSTACK_DISP0_8
        MOV     ?V0 + 0,DPL
        MOV     ?V0 + 1,DPH
        MOV     R0,#?V0 + 0
        LCALL   ?PUSH_XSTACK_I_TWO
        CFI CFA_XSP16 add(XSP16, 60)
        MOV     ?V0 + 0,#0x21
        MOV     ?V0 + 1,#0x0
        MOV     R0,#?V0 + 0
        LCALL   ?PUSH_XSTACK_I_TWO
        CFI CFA_XSP16 add(XSP16, 62)
        MOV     ?V0 + 0,#0x4
        MOV     R0,#?V0 + 0
        LCALL   ?PUSH_XSTACK_I_TWO
        CFI CFA_XSP16 add(XSP16, 64)
        MOV     R1,#0x20
        MOV     R4,#Gps_epDesc & 0xff
        MOV     R5,#(Gps_epDesc >> 8) & 0xff
        MOV     A,#0x9
        LCALL   ?XSTACK_DISP0_8
        MOV     R2,DPL
        MOV     R3,DPH
        LCALL   ??AF_DataRequest?relay
        MOV     A,#0x9
        LCALL   ?DEALLOC_XSTACK8
        CFI CFA_XSP16 add(XSP16, 55)
//  277 }
        MOV     A,#0x2d
        LCALL   ?DEALLOC_XSTACK8
        CFI CFA_XSP16 add(XSP16, 10)
        MOV     R7,#0x2
        LJMP    ?BANKED_LEAVE_XDATA
        CFI EndBlock cfiBlock3

        RSEG BANKED_CODE:CODE:NOROOT(0)
?Subroutine20:
        CFI Block cfiCond4 Using cfiCommon0
        CFI NoFunction
        CFI Conditional ??CrossCallReturnLabel_55
        CFI R6 load(1, XDATA, add(CFA_XSP16, literal(-10)))
        CFI VB load(1, XDATA, add(CFA_XSP16, literal(-9)))
        CFI V0 load(1, XDATA, add(CFA_XSP16, literal(-8)))
        CFI V1 load(1, XDATA, add(CFA_XSP16, literal(-7)))
        CFI R7 load(1, XDATA, add(CFA_XSP16, literal(-6)))
        CFI ?RET_LOW load(1, XDATA, add(CFA_XSP16, literal(-5)))
        CFI ?RET_HIGH load(1, XDATA, add(CFA_XSP16, literal(-4)))
        CFI ?BRET_EXT load(1, XDATA, add(CFA_XSP16, literal(-3)))
        CFI DPL0 load(1, XDATA, add(CFA_XSP16, literal(-2)))
        CFI DPH0 load(1, XDATA, add(CFA_XSP16, literal(-1)))
        CFI CFA_SP SP+-1
        CFI CFA_XSP16 add(XSP16, 55)
        CFI Block cfiCond5 Using cfiCommon0
        CFI (cfiCond5) NoFunction
        CFI (cfiCond5) Conditional ??CrossCallReturnLabel_56
        CFI (cfiCond5) R6 load(1, XDATA, add(CFA_XSP16, literal(-10)))
        CFI (cfiCond5) VB load(1, XDATA, add(CFA_XSP16, literal(-9)))
        CFI (cfiCond5) V0 load(1, XDATA, add(CFA_XSP16, literal(-8)))
        CFI (cfiCond5) V1 load(1, XDATA, add(CFA_XSP16, literal(-7)))
        CFI (cfiCond5) R7 load(1, XDATA, add(CFA_XSP16, literal(-6)))
        CFI (cfiCond5) ?RET_LOW load(1, XDATA, add(CFA_XSP16, literal(-5)))
        CFI (cfiCond5) ?RET_HIGH load(1, XDATA, add(CFA_XSP16, literal(-4)))
        CFI (cfiCond5) ?BRET_EXT load(1, XDATA, add(CFA_XSP16, literal(-3)))
        CFI (cfiCond5) DPL0 load(1, XDATA, add(CFA_XSP16, literal(-2)))
        CFI (cfiCond5) DPH0 load(1, XDATA, add(CFA_XSP16, literal(-1)))
        CFI (cfiCond5) CFA_SP SP+-1
        CFI (cfiCond5) CFA_XSP16 add(XSP16, 55)
        CFI Block cfiPicker6 Using cfiCommon1
        CFI (cfiPicker6) NoFunction
        CFI (cfiPicker6) Picker
        MOV     A,DPL
        ADD     A,R0
        MOV     DPL,A
        MOV     A,DPH
        ADDC    A,#0x0
        MOV     DPH,A
        RET
        CFI EndBlock cfiCond4
        CFI EndBlock cfiCond5
        CFI EndBlock cfiPicker6

        RSEG BANKED_CODE:CODE:NOROOT(0)
?Subroutine19:
        CFI Block cfiCond7 Using cfiCommon0
        CFI NoFunction
        CFI Conditional ??CrossCallReturnLabel_50
        CFI R6 load(1, XDATA, add(CFA_XSP16, literal(-10)))
        CFI VB load(1, XDATA, add(CFA_XSP16, literal(-9)))
        CFI V0 load(1, XDATA, add(CFA_XSP16, literal(-8)))
        CFI V1 load(1, XDATA, add(CFA_XSP16, literal(-7)))
        CFI R7 load(1, XDATA, add(CFA_XSP16, literal(-6)))
        CFI ?RET_LOW load(1, XDATA, add(CFA_XSP16, literal(-5)))
        CFI ?RET_HIGH load(1, XDATA, add(CFA_XSP16, literal(-4)))
        CFI ?BRET_EXT load(1, XDATA, add(CFA_XSP16, literal(-3)))
        CFI DPL0 load(1, XDATA, add(CFA_XSP16, literal(-2)))
        CFI DPH0 load(1, XDATA, add(CFA_XSP16, literal(-1)))
        CFI CFA_SP SP+0
        CFI CFA_XSP16 add(XSP16, 55)
        CFI Block cfiCond8 Using cfiCommon0
        CFI (cfiCond8) NoFunction
        CFI (cfiCond8) Conditional ??CrossCallReturnLabel_51
        CFI (cfiCond8) R6 load(1, XDATA, add(CFA_XSP16, literal(-10)))
        CFI (cfiCond8) VB load(1, XDATA, add(CFA_XSP16, literal(-9)))
        CFI (cfiCond8) V0 load(1, XDATA, add(CFA_XSP16, literal(-8)))
        CFI (cfiCond8) V1 load(1, XDATA, add(CFA_XSP16, literal(-7)))
        CFI (cfiCond8) R7 load(1, XDATA, add(CFA_XSP16, literal(-6)))
        CFI (cfiCond8) ?RET_LOW load(1, XDATA, add(CFA_XSP16, literal(-5)))
        CFI (cfiCond8) ?RET_HIGH load(1, XDATA, add(CFA_XSP16, literal(-4)))
        CFI (cfiCond8) ?BRET_EXT load(1, XDATA, add(CFA_XSP16, literal(-3)))
        CFI (cfiCond8) DPL0 load(1, XDATA, add(CFA_XSP16, literal(-2)))
        CFI (cfiCond8) DPH0 load(1, XDATA, add(CFA_XSP16, literal(-1)))
        CFI (cfiCond8) CFA_SP SP+0
        CFI (cfiCond8) CFA_XSP16 add(XSP16, 55)
        CFI Block cfiCond9 Using cfiCommon0
        CFI (cfiCond9) NoFunction
        CFI (cfiCond9) Conditional ??CrossCallReturnLabel_52
        CFI (cfiCond9) R6 load(1, XDATA, add(CFA_XSP16, literal(-10)))
        CFI (cfiCond9) VB load(1, XDATA, add(CFA_XSP16, literal(-9)))
        CFI (cfiCond9) V0 load(1, XDATA, add(CFA_XSP16, literal(-8)))
        CFI (cfiCond9) V1 load(1, XDATA, add(CFA_XSP16, literal(-7)))
        CFI (cfiCond9) R7 load(1, XDATA, add(CFA_XSP16, literal(-6)))
        CFI (cfiCond9) ?RET_LOW load(1, XDATA, add(CFA_XSP16, literal(-5)))
        CFI (cfiCond9) ?RET_HIGH load(1, XDATA, add(CFA_XSP16, literal(-4)))
        CFI (cfiCond9) ?BRET_EXT load(1, XDATA, add(CFA_XSP16, literal(-3)))
        CFI (cfiCond9) DPL0 load(1, XDATA, add(CFA_XSP16, literal(-2)))
        CFI (cfiCond9) DPH0 load(1, XDATA, add(CFA_XSP16, literal(-1)))
        CFI (cfiCond9) CFA_SP SP+0
        CFI (cfiCond9) CFA_XSP16 add(XSP16, 55)
        CFI Block cfiCond10 Using cfiCommon0
        CFI (cfiCond10) NoFunction
        CFI (cfiCond10) Conditional ??CrossCallReturnLabel_53
        CFI (cfiCond10) R6 load(1, XDATA, add(CFA_XSP16, literal(-10)))
        CFI (cfiCond10) VB load(1, XDATA, add(CFA_XSP16, literal(-9)))
        CFI (cfiCond10) V0 load(1, XDATA, add(CFA_XSP16, literal(-8)))
        CFI (cfiCond10) V1 load(1, XDATA, add(CFA_XSP16, literal(-7)))
        CFI (cfiCond10) R7 load(1, XDATA, add(CFA_XSP16, literal(-6)))
        CFI (cfiCond10) ?RET_LOW load(1, XDATA, add(CFA_XSP16, literal(-5)))
        CFI (cfiCond10) ?RET_HIGH load(1, XDATA, add(CFA_XSP16, literal(-4)))
        CFI (cfiCond10) ?BRET_EXT load(1, XDATA, add(CFA_XSP16, literal(-3)))
        CFI (cfiCond10) DPL0 load(1, XDATA, add(CFA_XSP16, literal(-2)))
        CFI (cfiCond10) DPH0 load(1, XDATA, add(CFA_XSP16, literal(-1)))
        CFI (cfiCond10) CFA_SP SP+0
        CFI (cfiCond10) CFA_XSP16 add(XSP16, 55)
        CFI Block cfiCond11 Using cfiCommon0
        CFI (cfiCond11) NoFunction
        CFI (cfiCond11) Conditional ??CrossCallReturnLabel_54
        CFI (cfiCond11) R6 load(1, XDATA, add(CFA_XSP16, literal(-10)))
        CFI (cfiCond11) VB load(1, XDATA, add(CFA_XSP16, literal(-9)))
        CFI (cfiCond11) V0 load(1, XDATA, add(CFA_XSP16, literal(-8)))
        CFI (cfiCond11) V1 load(1, XDATA, add(CFA_XSP16, literal(-7)))
        CFI (cfiCond11) R7 load(1, XDATA, add(CFA_XSP16, literal(-6)))
        CFI (cfiCond11) ?RET_LOW load(1, XDATA, add(CFA_XSP16, literal(-5)))
        CFI (cfiCond11) ?RET_HIGH load(1, XDATA, add(CFA_XSP16, literal(-4)))
        CFI (cfiCond11) ?BRET_EXT load(1, XDATA, add(CFA_XSP16, literal(-3)))
        CFI (cfiCond11) DPL0 load(1, XDATA, add(CFA_XSP16, literal(-2)))
        CFI (cfiCond11) DPH0 load(1, XDATA, add(CFA_XSP16, literal(-1)))
        CFI (cfiCond11) CFA_SP SP+0
        CFI (cfiCond11) CFA_XSP16 add(XSP16, 55)
        CFI Block cfiPicker12 Using cfiCommon1
        CFI (cfiPicker12) NoFunction
        CFI (cfiPicker12) Picker
        ADDC    A,#0x0
        MOV     DPH,A
        MOVX    A,@DPTR
        RET
        CFI EndBlock cfiCond7
        CFI EndBlock cfiCond8
        CFI EndBlock cfiCond9
        CFI EndBlock cfiCond10
        CFI EndBlock cfiCond11
        CFI EndBlock cfiPicker12

        RSEG BANKED_CODE:CODE:NOROOT(0)
?Subroutine18:
        CFI Block cfiCond13 Using cfiCommon0
        CFI NoFunction
        CFI Conditional ??CrossCallReturnLabel_47
        CFI R6 load(1, XDATA, add(CFA_XSP16, literal(-10)))
        CFI VB load(1, XDATA, add(CFA_XSP16, literal(-9)))
        CFI V0 load(1, XDATA, add(CFA_XSP16, literal(-8)))
        CFI V1 load(1, XDATA, add(CFA_XSP16, literal(-7)))
        CFI R7 load(1, XDATA, add(CFA_XSP16, literal(-6)))
        CFI ?RET_LOW load(1, XDATA, add(CFA_XSP16, literal(-5)))
        CFI ?RET_HIGH load(1, XDATA, add(CFA_XSP16, literal(-4)))
        CFI ?BRET_EXT load(1, XDATA, add(CFA_XSP16, literal(-3)))
        CFI DPL0 load(1, XDATA, add(CFA_XSP16, literal(-2)))
        CFI DPH0 load(1, XDATA, add(CFA_XSP16, literal(-1)))
        CFI CFA_SP SP+-1
        CFI CFA_XSP16 add(XSP16, 55)
        CFI Block cfiCond14 Using cfiCommon0
        CFI (cfiCond14) NoFunction
        CFI (cfiCond14) Conditional ??CrossCallReturnLabel_48
        CFI (cfiCond14) R6 load(1, XDATA, add(CFA_XSP16, literal(-10)))
        CFI (cfiCond14) VB load(1, XDATA, add(CFA_XSP16, literal(-9)))
        CFI (cfiCond14) V0 load(1, XDATA, add(CFA_XSP16, literal(-8)))
        CFI (cfiCond14) V1 load(1, XDATA, add(CFA_XSP16, literal(-7)))
        CFI (cfiCond14) R7 load(1, XDATA, add(CFA_XSP16, literal(-6)))
        CFI (cfiCond14) ?RET_LOW load(1, XDATA, add(CFA_XSP16, literal(-5)))
        CFI (cfiCond14) ?RET_HIGH load(1, XDATA, add(CFA_XSP16, literal(-4)))
        CFI (cfiCond14) ?BRET_EXT load(1, XDATA, add(CFA_XSP16, literal(-3)))
        CFI (cfiCond14) DPL0 load(1, XDATA, add(CFA_XSP16, literal(-2)))
        CFI (cfiCond14) DPH0 load(1, XDATA, add(CFA_XSP16, literal(-1)))
        CFI (cfiCond14) CFA_SP SP+-1
        CFI (cfiCond14) CFA_XSP16 add(XSP16, 55)
        CFI Block cfiCond15 Using cfiCommon0
        CFI (cfiCond15) NoFunction
        CFI (cfiCond15) Conditional ??CrossCallReturnLabel_49
        CFI (cfiCond15) R6 load(1, XDATA, add(CFA_XSP16, literal(-10)))
        CFI (cfiCond15) VB load(1, XDATA, add(CFA_XSP16, literal(-9)))
        CFI (cfiCond15) V0 load(1, XDATA, add(CFA_XSP16, literal(-8)))
        CFI (cfiCond15) V1 load(1, XDATA, add(CFA_XSP16, literal(-7)))
        CFI (cfiCond15) R7 load(1, XDATA, add(CFA_XSP16, literal(-6)))
        CFI (cfiCond15) ?RET_LOW load(1, XDATA, add(CFA_XSP16, literal(-5)))
        CFI (cfiCond15) ?RET_HIGH load(1, XDATA, add(CFA_XSP16, literal(-4)))
        CFI (cfiCond15) ?BRET_EXT load(1, XDATA, add(CFA_XSP16, literal(-3)))
        CFI (cfiCond15) DPL0 load(1, XDATA, add(CFA_XSP16, literal(-2)))
        CFI (cfiCond15) DPH0 load(1, XDATA, add(CFA_XSP16, literal(-1)))
        CFI (cfiCond15) CFA_SP SP+-1
        CFI (cfiCond15) CFA_XSP16 add(XSP16, 55)
        CFI Block cfiPicker16 Using cfiCommon1
        CFI (cfiPicker16) NoFunction
        CFI (cfiPicker16) Picker
        MOV     A,DPL
        ADD     A,R0
        MOV     R0,A
        MOV     A,DPH
        ADDC    A,#0x0
        MOV     R1,A
        MOV     A,R0
        RET
        CFI EndBlock cfiCond13
        CFI EndBlock cfiCond14
        CFI EndBlock cfiCond15
        CFI EndBlock cfiPicker16

        RSEG BANKED_CODE:CODE:NOROOT(0)
//  278 bool isDigital(unsigned char c)
isDigital:
        CFI Block cfiBlock17 Using cfiCommon0
        CFI Function isDigital
        CODE
//  279 {
        ; Saved register size: 0
        ; Auto size: 0
        MOV     A,R1
        MOV     R0,A
//  280   if(c=='0' || c=='1' ||c=='2' ||c=='3' ||c=='4' ||
//  281      c=='5' ||c=='6' ||c=='7' ||c=='8' ||c=='9' || c=='.')
        MOV     A,#0x30
        XRL     A,R0
        JZ      ??isDigital_0
        MOV     A,#0x31
        XRL     A,R0
        JZ      ??isDigital_0
        MOV     A,#0x32
        XRL     A,R0
        JZ      ??isDigital_0
        MOV     A,#0x33
        XRL     A,R0
        JZ      ??isDigital_0
        MOV     A,#0x34
        XRL     A,R0
        JZ      ??isDigital_0
        MOV     A,#0x35
        XRL     A,R0
        JZ      ??isDigital_0
        MOV     A,#0x36
        XRL     A,R0
        JZ      ??isDigital_0
        MOV     A,#0x37
        XRL     A,R0
        JZ      ??isDigital_0
        MOV     A,#0x38
        XRL     A,R0
        JZ      ??isDigital_0
        MOV     A,#0x39
        XRL     A,R0
        JZ      ??isDigital_0
        MOV     A,#0x2e
        XRL     A,R0
        JNZ     ??isDigital_1
//  282     return true;
??isDigital_0:
        MOV     R1,#0x1
        SJMP    ??isDigital_2
//  283   else
//  284     return false;
??isDigital_1:
        MOV     R1,#0x0
??isDigital_2:
        LJMP    ?BRET
        CFI EndBlock cfiBlock17
//  285 }

        RSEG BANKED_CODE:CODE:NOROOT(0)
//  286 void handle()
handle:
        CFI Block cfiBlock18 Using cfiCommon0
        CFI Function handle
        CODE
//  287 {
        PUSH    DPL
        CFI DPL0 Frame(CFA_SP, 4)
        CFI CFA_SP SP+-4
        PUSH    DPH
        CFI DPH0 Frame(CFA_SP, 5)
        CFI CFA_SP SP+-5
        ; Saved register size: 2
        ; Auto size: 0
//  288   check=0;
        MOV     DPTR,#check
        LCALL   ?Subroutine6 & 0xFFFF
//  289   Recdata_GPGGA_start=0;
//  290   Recdata_GPGSV_start=0;
??CrossCallReturnLabel_15:
        MOV     DPTR,#Recdata_GPGSV_start
        LCALL   ??Subroutine32_0 & 0xFFFF
//  291   Recdata_GPGSA_start=0;
//  292   Recdata_GPRMC_start=0;
//  293   Recdata_GPVTG_start=0;
??CrossCallReturnLabel_88:
        MOVX    @DPTR,A
//  294   while(check<295)
//  295   {
//  296       if(Recdata[check]=='$'&&Recdata[check+1]=='G'&&Recdata[check+2]=='P'
//  297         &&Recdata[check+3]=='G'&&Recdata[check+4]=='G'&&Recdata[check+5]=='A')
??handle_0:
        MOV     DPTR,#check
        MOVX    A,@DPTR
        ADD     A,#Recdata & 0xff
        MOV     R0,A
        INC     DPTR
        MOVX    A,@DPTR
        ADDC    A,#(Recdata >> 8) & 0xff
        MOV     R1,A
        MOV     DPL,R0
        MOV     DPH,R1
        MOVX    A,@DPTR
        XRL     A,#0x24
        JZ      $+5
        LJMP    ??handle_1 & 0xFFFF
        MOV     DPTR,#check
        MOVX    A,@DPTR
        ADD     A,#(Recdata + 1) & 0xff
        INC     R0
        INC     DPTR
        MOVX    A,@DPTR
        ADDC    A,#((Recdata + 1) >> 8) & 0xff
        MOV     R1,A
        MOV     DPL,R0
        MOV     DPH,R1
        MOVX    A,@DPTR
        XRL     A,#0x47
        JZ      $+5
        LJMP    ??handle_1 & 0xFFFF
        MOV     DPTR,#check
        MOVX    A,@DPTR
        ADD     A,#(Recdata + 2) & 0xff
        INC     R0
        INC     DPTR
        MOVX    A,@DPTR
        ADDC    A,#((Recdata + 2) >> 8) & 0xff
        MOV     R1,A
        MOV     DPL,R0
        MOV     DPH,R1
        MOVX    A,@DPTR
        XRL     A,#0x50
        JZ      $+5
        LJMP    ??handle_1 & 0xFFFF
        MOV     DPTR,#check
        MOVX    A,@DPTR
        ADD     A,#(Recdata + 3) & 0xff
        INC     R0
        INC     DPTR
        MOVX    A,@DPTR
        ADDC    A,#((Recdata + 3) >> 8) & 0xff
        MOV     R1,A
        MOV     DPL,R0
        MOV     DPH,R1
        MOVX    A,@DPTR
        XRL     A,#0x47
        JZ      $+5
        LJMP    ??handle_2 & 0xFFFF
        LCALL   ?Subroutine12 & 0xFFFF
??CrossCallReturnLabel_35:
        XRL     A,#0x47
        JZ      $+5
        LJMP    ??handle_3 & 0xFFFF
        LCALL   ?Subroutine11 & 0xFFFF
??CrossCallReturnLabel_31:
        XRL     A,#0x41
        JZ      $+5
        LJMP    ??handle_1 & 0xFFFF
//  298       {
//  299          position=check+6;
        LCALL   ?Subroutine9 & 0xFFFF
??CrossCallReturnLabel_21:
        SJMP    ??CrossCallReturnLabel_86
//  300          while(Recdata_GPGGA_start<70&&Recdata[position++]!='$')
//  301          {
//  302            Recdata_GPGGA[Recdata_GPGGA_start++]=Recdata[position-1];
??handle_4:
        LCALL   ?Subroutine10 & 0xFFFF
//  303            Recdata_GPGSV_start=0;
//  304            Recdata_GPGSA_start=0;
//  305            Recdata_GPRMC_start=0;
//  306            Recdata_GPVTG_start=0;
//  307          }
??CrossCallReturnLabel_26:
        PUSH    A
        CFI CFA_SP SP+-6
        MOV     DPTR,#Recdata_GPGGA_start
        MOVX    A,@DPTR
        ADD     A,#Recdata_GPGGA & 0xff
        MOV     R0,A
        INC     DPTR
        MOVX    A,@DPTR
        ADDC    A,#(Recdata_GPGGA >> 8) & 0xff
        MOV     R1,A
        MOV     DPL,R0
        MOV     DPH,R1
        POP     A
        CFI CFA_SP SP+-5
        MOVX    @DPTR,A
        MOV     DPTR,#Recdata_GPGGA_start
        LCALL   ?Subroutine7 & 0xFFFF
??CrossCallReturnLabel_17:
        LCALL   ?Subroutine3 & 0xFFFF
??CrossCallReturnLabel_86:
        MOVX    @DPTR,A
        MOV     DPTR,#Recdata_GPGGA_start
        LCALL   ?Subroutine13 & 0xFFFF
??CrossCallReturnLabel_38:
        JNC     ??handle_5
        LCALL   ?Subroutine1 & 0xFFFF
??CrossCallReturnLabel_0:
        JNZ     ??handle_4
//  308          //uint GaoDu_count=0;
//  309          uint i_utc=0;
??handle_5:
        MOV     R2,#0x0
        MOV     R3,#0x0
//  310          uint i=0;
        MOV     R0,#0x0
        MOV     R1,#0x0
//  311          if(Recdata_GPGGA[i_utc+1]!='H')
        MOV     DPTR,#Recdata_GPGGA + 1
        MOVX    A,@DPTR
        XRL     A,#0x48
        JNZ     ??CrossCallReturnLabel_5
        SJMP    ??handle_6
//  312          {
//  313            while(Recdata_GPGGA[i_utc+1]!=',')
//  314           {
//  315             UTC[i++]=Recdata_GPGGA[i_utc+1];
??handle_7:
        MOVX    A,@DPTR
        PUSH    A
        CFI CFA_SP SP+-6
        MOV     A,#UTC & 0xff
        ADD     A,R0
        MOV     DPL,A
        MOV     A,#(UTC >> 8) & 0xff
        ADDC    A,R1
        MOV     DPH,A
        POP     A
        CFI CFA_SP SP+-5
        LCALL   ?Subroutine2 & 0xFFFF
//  316             i_utc++;
//  317           }
??CrossCallReturnLabel_5:
        LCALL   ?Subroutine22 & 0xFFFF
//  318          }
??CrossCallReturnLabel_59:
        JNZ     ??handle_7
//  319          uint i_weidu=i_utc+1;
??handle_6:
        MOV     A,R2
        ADD     A,#0x1
        INC     R2
        MOV     A,R3
        LCALL   ??Subroutine29_0 & 0xFFFF
//  320          i=0;
??CrossCallReturnLabel_77:
        SJMP    ??CrossCallReturnLabel_6
//  321          while(Recdata_GPGGA[i_weidu+1]!=',')
//  322          {
//  323            WeiDu[i++]=Recdata_GPGGA[i_weidu+1];
??handle_8:
        MOVX    A,@DPTR
        PUSH    A
        CFI CFA_SP SP+-6
        MOV     A,#WeiDu & 0xff
        ADD     A,R0
        MOV     DPL,A
        MOV     A,#(WeiDu >> 8) & 0xff
        ADDC    A,R1
        MOV     DPH,A
        POP     A
        CFI CFA_SP SP+-5
        LCALL   ?Subroutine2 & 0xFFFF
//  324            i_weidu++;
//  325          }
??CrossCallReturnLabel_6:
        LCALL   ?Subroutine22 & 0xFFFF
??CrossCallReturnLabel_60:
        JNZ     ??handle_8
//  326          uint i_N=i_weidu+1;
        MOV     A,R2
        ADD     A,#0x1
        MOV     R0,A
        MOV     A,R3
        SJMP    ??handle_9
//  327          i=0;
//  328          while(Recdata_GPGGA[i_N+1]!=',')
//  329          {
//  330            i_N++;
??handle_10:
        MOV     A,R0
        ADD     A,#0x1
        INC     R0
        MOV     A,R1
//  331          }
??handle_9:
        LCALL   ??Subroutine30_0 & 0xFFFF
??CrossCallReturnLabel_80:
        JNZ     ??handle_10
//  332          uint i_JingDu=i_N+1;
        LCALL   ?Subroutine17 & 0xFFFF
//  333          i=0;
??CrossCallReturnLabel_74:
        SJMP    ??CrossCallReturnLabel_7
//  334          while(Recdata_GPGGA[i_JingDu+1]!=',')
//  335          {
//  336            JingDu[i++]=Recdata_GPGGA[i_JingDu+1];
??handle_11:
        MOVX    A,@DPTR
        PUSH    A
        CFI CFA_SP SP+-6
        MOV     A,#JingDu & 0xff
        ADD     A,R0
        MOV     DPL,A
        MOV     A,#(JingDu >> 8) & 0xff
        ADDC    A,R1
        MOV     DPH,A
        POP     A
        CFI CFA_SP SP+-5
        LCALL   ?Subroutine2 & 0xFFFF
//  337            i_JingDu++;
//  338          }
??CrossCallReturnLabel_7:
        LCALL   ?Subroutine22 & 0xFFFF
??CrossCallReturnLabel_61:
        JNZ     ??handle_11
//  339          uint i_E=i_JingDu+1;
        MOV     A,R2
        ADD     A,#0x1
        MOV     R0,A
        MOV     A,R3
        SJMP    ??handle_12
//  340          i=0;
//  341          while(Recdata_GPGGA[i_E+1]!=',')
//  342          {
//  343            i_E++;
??handle_13:
        MOV     A,R0
        ADD     A,#0x1
        INC     R0
        MOV     A,R1
//  344          }
??handle_12:
        LCALL   ??Subroutine30_0 & 0xFFFF
??CrossCallReturnLabel_81:
        JNZ     ??handle_13
//  345          uint i_temp=i_E+1;
//  346          i=0;
//  347          while(Recdata_GPGGA[i_temp+1]!=',')
//  348          {
//  349            i_temp++;
??handle_14:
        LCALL   ?Subroutine16 & 0xFFFF
//  350          }
??CrossCallReturnLabel_78:
        JNZ     ??handle_14
//  351          uint i_WeiXing=i_temp+1;
        LCALL   ?Subroutine17 & 0xFFFF
//  352          i=0;
??CrossCallReturnLabel_75:
        SJMP    ??CrossCallReturnLabel_8
//  353          while(Recdata_GPGGA[i_WeiXing+1]!=',')
//  354          {
//  355            WeiXing[i++]=Recdata_GPGGA[i_WeiXing+1];
??handle_15:
        MOVX    A,@DPTR
        PUSH    A
        CFI CFA_SP SP+-6
        MOV     A,#WeiXing & 0xff
        ADD     A,R0
        MOV     DPL,A
        MOV     A,#(WeiXing >> 8) & 0xff
        ADDC    A,R1
        MOV     DPH,A
        POP     A
        CFI CFA_SP SP+-5
        LCALL   ?Subroutine2 & 0xFFFF
//  356            i_WeiXing++;
//  357          }
??CrossCallReturnLabel_8:
        LCALL   ?Subroutine22 & 0xFFFF
??CrossCallReturnLabel_62:
        JNZ     ??handle_15
//  358          uint i_W=i_WeiXing+1;
        MOV     A,R2
        ADD     A,#0x1
        MOV     R0,A
        MOV     A,R3
        SJMP    ??handle_16
//  359          i=0;
//  360          while(Recdata_GPGGA[i_W+1]!=',')
//  361          {         
//  362            i_W++;
??handle_17:
        MOV     A,R0
        ADD     A,#0x1
        INC     R0
        MOV     A,R1
//  363          }
??handle_16:
        LCALL   ??Subroutine30_0 & 0xFFFF
??CrossCallReturnLabel_82:
        JNZ     ??handle_17
//  364          uint i_GaoDu=i_W+1;
        LCALL   ?Subroutine17 & 0xFFFF
//  365          i=0;
//  366          while(Recdata_GPGGA[i_GaoDu+1]!=',')
??CrossCallReturnLabel_76:
        LCALL   ?Subroutine22 & 0xFFFF
??CrossCallReturnLabel_63:
        JNZ     $+5
        LJMP    ??handle_1 & 0xFFFF
//  367          {    
//  368            GaoDu[i++]=Recdata_GPGGA[i_GaoDu+1];
        MOVX    A,@DPTR
        PUSH    A
        CFI CFA_SP SP+-6
        MOV     A,#GaoDu & 0xff
        ADD     A,R0
        MOV     DPL,A
        MOV     A,#(GaoDu >> 8) & 0xff
        ADDC    A,R1
        MOV     DPH,A
        POP     A
        CFI CFA_SP SP+-5
        LCALL   ?Subroutine2 & 0xFFFF
//  369            i_GaoDu++;
//  370          }
//  371          /*for (uint i=0;i<6;i++)
//  372            UTC[i]=Recdata_GPGGA[i+1];
//  373          if (Recdata_GPGGA[12]==',')
//  374          {
//  375            for (uint i=0;i<9;i++)
//  376              WeiDu[i]='*';
//  377            for (uint i=0;i<10;i++)
//  378              JingDu[i]='*';
//  379            for (uint i=0;i<2;i++)
//  380              WeiXing[i]='*';
//  381            for (uint i=0;i<5;i++)
//  382              GaoDu[i]='*';
//  383          }
//  384          else
//  385          {
//  386            for (uint i=0;i<9;i++)
//  387              WeiDu[i]=Recdata_GPGGA[i+12];
//  388            for (uint i=0;i<10;i++)
//  389              JingDu[i]=Recdata_GPGGA[i+24];
//  390          }
//  391          uint GaoDu_count=0;
//  392          while(Recdata_GPGGA[GaoDu_count]!='M')
//  393          {
//  394            if(GaoDu_count<70)
//  395              GaoDu_count++;
//  396          }
//  397          if(Recdata_GPGGA[GaoDu_count]=='M')
//  398          {
//  399            if(Recdata_GPGGA[GaoDu_count-6]>'0'&&Recdata_GPGGA[GaoDu_count-6]<='9')
//  400            {
//  401              GaoDu[0]=Recdata_GPGGA[GaoDu_count-6];
//  402              GaoDu[1]=Recdata_GPGGA[GaoDu_count-5];
//  403              GaoDu[2]=Recdata_GPGGA[GaoDu_count-4];
//  404              GaoDu[3]=Recdata_GPGGA[GaoDu_count-3];
//  405              GaoDu[4]=Recdata_GPGGA[GaoDu_count-2];
//  406            }
//  407            else if(Recdata_GPGGA[GaoDu_count-5]>'0'&&Recdata_GPGGA[GaoDu_count-6]<='9')
//  408            {
//  409              GaoDu[0]='0';
//  410              GaoDu[1]=Recdata_GPGGA[GaoDu_count-5];
//  411              GaoDu[2]=Recdata_GPGGA[GaoDu_count-4];
//  412              GaoDu[3]=Recdata_GPGGA[GaoDu_count-3];
//  413              GaoDu[4]=Recdata_GPGGA[GaoDu_count-2];
//  414            }
//  415            else 
//  416            {
//  417              GaoDu[0]='0';
//  418              GaoDu[1]='0';
//  419              GaoDu[2]=Recdata_GPGGA[GaoDu_count-4];
//  420              GaoDu[3]=Recdata_GPGGA[GaoDu_count-3];
//  421              GaoDu[4]=Recdata_GPGGA[GaoDu_count-2];
//  422            }
//  423          }*/
//  424       }
??CrossCallReturnLabel_9:
        SJMP    ??CrossCallReturnLabel_76
??handle_3:
        MOVX    A,@DPTR
        XRL     A,#0x53
        JZ      $+5
        LJMP    ??handle_1 & 0xFFFF
        LCALL   ?Subroutine11 & 0xFFFF
??CrossCallReturnLabel_32:
        XRL     A,#0x56
        JNZ     ??handle_18
//  425       else if(Recdata[check]=='$'&&Recdata[check+1]=='G'&&Recdata[check+2]=='P'
//  426          &&Recdata[check+3]=='G'&&Recdata[check+4]=='S'&&Recdata[check+5]=='V')
//  427       {
//  428          position=check+6;
        LCALL   ?Subroutine9 & 0xFFFF
??CrossCallReturnLabel_22:
        MOVX    @DPTR,A
//  429          while(Recdata[position++]!='$'&&Recdata_GPGSV_start<70)
        LCALL   ?Subroutine1 & 0xFFFF
??CrossCallReturnLabel_1:
        JNZ     $+5
        LJMP    ??handle_1 & 0xFFFF
        MOV     DPTR,#Recdata_GPGSV_start
        LCALL   ?Subroutine13 & 0xFFFF
??CrossCallReturnLabel_39:
        JC      $+5
        LJMP    ??handle_1 & 0xFFFF
//  430          {
//  431            Recdata_GPGSV[Recdata_GPGSV_start++]=Recdata[position-1];
        LCALL   ?Subroutine10 & 0xFFFF
??CrossCallReturnLabel_27:
        PUSH    A
        CFI CFA_SP SP+-6
        MOV     DPTR,#Recdata_GPGSV_start
        MOVX    A,@DPTR
        ADD     A,#Recdata_GPGSV & 0xff
        MOV     R0,A
        INC     DPTR
        MOVX    A,@DPTR
        ADDC    A,#(Recdata_GPGSV >> 8) & 0xff
        MOV     R1,A
        MOV     DPL,R0
        MOV     DPH,R1
        POP     A
        CFI CFA_SP SP+-5
        MOVX    @DPTR,A
        MOV     DPTR,#Recdata_GPGSV_start
        LCALL   ?Subroutine15 & 0xFFFF
//  432            Recdata_GPGGA_start=0;
??CrossCallReturnLabel_45:
        MOV     DPTR,#Recdata_GPGGA_start
        LCALL   ?Subroutine3 & 0xFFFF
//  433            Recdata_GPGSA_start=0;
//  434            Recdata_GPRMC_start=0;
//  435            Recdata_GPVTG_start=0;
//  436          }
//  437          /*for (uint i=0;i<2;i++)
//  438            WeiXing[i]=Recdata_GPGSV[i+5];*/
//  439       }
??CrossCallReturnLabel_87:
        SJMP    ??CrossCallReturnLabel_22
??handle_18:
        MOVX    A,@DPTR
        XRL     A,#0x41
        JZ      $+5
        LJMP    ??handle_1 & 0xFFFF
//  440       else if(Recdata[check]=='$'&&Recdata[check+1]=='G'&&Recdata[check+2]=='P'
//  441           &&Recdata[check+3]=='G'&&Recdata[check+4]=='S'&&Recdata[check+5]=='A')
//  442       {
//  443           position=check+6;
        LCALL   ?Subroutine9 & 0xFFFF
??CrossCallReturnLabel_23:
        SJMP    ??CrossCallReturnLabel_19
//  444           while(Recdata_GPGSA_start<70&&Recdata[position++]!='$')
//  445           {
//  446             Recdata_GPGSA[Recdata_GPGSA_start++]=Recdata[position-1];
??handle_19:
        LCALL   ?Subroutine10 & 0xFFFF
??CrossCallReturnLabel_28:
        PUSH    A
        CFI CFA_SP SP+-6
        MOV     DPTR,#Recdata_GPGSA_start
        MOVX    A,@DPTR
        ADD     A,#Recdata_GPGSA & 0xff
        MOV     R0,A
        INC     DPTR
        MOVX    A,@DPTR
        ADDC    A,#(Recdata_GPGSA >> 8) & 0xff
        MOV     R1,A
        MOV     DPL,R0
        MOV     DPH,R1
        POP     A
        CFI CFA_SP SP+-5
        MOVX    @DPTR,A
        MOV     DPTR,#Recdata_GPGSA_start
        LCALL   ?Subroutine7 & 0xFFFF
//  447             Recdata_GPGSV_start=0;
??CrossCallReturnLabel_18:
        LCALL   ?Subroutine6 & 0xFFFF
//  448             Recdata_GPGGA_start=0;
//  449             Recdata_GPRMC_start=0;
??CrossCallReturnLabel_16:
        MOV     DPTR,#Recdata_GPRMC_start
        LCALL   ?Subroutine8 & 0xFFFF
//  450             Recdata_GPVTG_start=0;
//  451           }
??CrossCallReturnLabel_19:
        MOVX    @DPTR,A
        MOV     DPTR,#Recdata_GPGSA_start
        LCALL   ?Subroutine13 & 0xFFFF
??CrossCallReturnLabel_40:
        JNC     ??handle_20
        LCALL   ?Subroutine1 & 0xFFFF
??CrossCallReturnLabel_2:
        JNZ     ??handle_19
//  452           JiBie[0]=Recdata_GPGSA[3];
??handle_20:
        MOV     DPTR,#Recdata_GPGSA + 3
        MOVX    A,@DPTR
        MOV     DPTR,#JiBie
        MOVX    @DPTR,A
        LJMP    ??handle_1 & 0xFFFF
//  453       }
??handle_2:
        MOVX    A,@DPTR
        XRL     A,#0x52
        JZ      $+5
        LJMP    ??handle_21 & 0xFFFF
        LCALL   ?Subroutine12 & 0xFFFF
??CrossCallReturnLabel_36:
        XRL     A,#0x4d
        JZ      $+5
        LJMP    ??handle_1 & 0xFFFF
        LCALL   ?Subroutine11 & 0xFFFF
??CrossCallReturnLabel_33:
        XRL     A,#0x43
        JZ      $+5
        LJMP    ??handle_1 & 0xFFFF
//  454       else if(Recdata[check]=='$'&&Recdata[check+1]=='G'&&Recdata[check+2]=='P'
//  455            &&Recdata[check+3]=='R'&&Recdata[check+4]=='M'&&Recdata[check+5]=='C')
//  456       {
//  457           position=check+6;
        LCALL   ?Subroutine9 & 0xFFFF
??CrossCallReturnLabel_24:
        SJMP    ??CrossCallReturnLabel_20
//  458           while(Recdata_GPRMC_start<70&&Recdata[position++]!='$')
//  459           {
//  460             Recdata_GPRMC[Recdata_GPRMC_start++]=Recdata[position-1];
??handle_22:
        LCALL   ?Subroutine10 & 0xFFFF
??CrossCallReturnLabel_29:
        PUSH    A
        CFI CFA_SP SP+-6
        MOV     DPTR,#Recdata_GPRMC_start
        MOVX    A,@DPTR
        ADD     A,#Recdata_GPRMC & 0xff
        MOV     R0,A
        INC     DPTR
        MOVX    A,@DPTR
        ADDC    A,#(Recdata_GPRMC >> 8) & 0xff
        MOV     R1,A
        MOV     DPL,R0
        MOV     DPH,R1
        POP     A
        CFI CFA_SP SP+-5
        MOVX    @DPTR,A
        MOV     DPTR,#Recdata_GPRMC_start
        LCALL   ?Subroutine5 & 0xFFFF
//  461             Recdata_GPGSV_start=0;
//  462             Recdata_GPGSA_start=0;
//  463             Recdata_GPGGA_start=0;
??CrossCallReturnLabel_13:
        MOV     DPTR,#Recdata_GPGGA_start
        LCALL   ?Subroutine8 & 0xFFFF
//  464             Recdata_GPVTG_start=0;
//  465           }
??CrossCallReturnLabel_20:
        MOVX    @DPTR,A
        MOV     DPTR,#Recdata_GPRMC_start
        LCALL   ?Subroutine13 & 0xFFFF
??CrossCallReturnLabel_41:
        JNC     ??handle_23
        LCALL   ?Subroutine1 & 0xFFFF
??CrossCallReturnLabel_3:
        JNZ     ??handle_22
//  466           uint i_utc=0;
??handle_23:
        MOV     R0,#0x0
        MOV     R1,#0x0
//  467           uint i=0;
        MOV     R2,#0x0
        MOV     R3,#0x0
        SJMP    ??CrossCallReturnLabel_10
//  468           while(Recdata_GPGGA[i_utc+1]!=',')
//  469           {
//  470             UTC[i++]=Recdata_GPGGA[i_utc+1];
??handle_24:
        MOVX    A,@DPTR
        PUSH    A
        CFI CFA_SP SP+-6
        MOV     A,#UTC & 0xff
        ADD     A,R2
        MOV     DPL,A
        MOV     A,#(UTC >> 8) & 0xff
        ADDC    A,R3
        MOV     DPH,A
        POP     A
        CFI CFA_SP SP+-5
        LCALL   ?Subroutine4 & 0xFFFF
//  471             i_utc++;
//  472           }
??CrossCallReturnLabel_10:
        LCALL   ??Subroutine31_0 & 0xFFFF
??CrossCallReturnLabel_83:
        JNZ     ??handle_24
//  473           uint i_temp=i_utc+1;
        MOV     A,R0
        ADD     A,#0x1
        MOV     R2,A
        MOV     A,R1
        SJMP    ??handle_25
//  474           i=0;
//  475           while(Recdata_GPGGA[i_temp+1]!=',')
//  476           {
//  477             i_temp++;
??handle_26:
        MOV     A,R2
        ADD     A,#0x1
        INC     R2
        MOV     A,R3
??handle_25:
        ADDC    A,#0x0
        MOV     R3,A
//  478           }
        LCALL   ?Subroutine22 & 0xFFFF
??CrossCallReturnLabel_64:
        JNZ     ??handle_26
//  479           uint i_weidu=i_utc+1;
        LCALL   ?Subroutine21 & 0xFFFF
//  480           i=0;
??CrossCallReturnLabel_57:
        SJMP    ??CrossCallReturnLabel_11
//  481           while(Recdata_GPGGA[i_weidu+1]!=',')
//  482           {
//  483             WeiDu[i++]=Recdata_GPGGA[i_weidu+1];
??handle_27:
        MOVX    A,@DPTR
        PUSH    A
        CFI CFA_SP SP+-6
        MOV     A,#WeiDu & 0xff
        ADD     A,R2
        MOV     DPL,A
        MOV     A,#(WeiDu >> 8) & 0xff
        ADDC    A,R3
        MOV     DPH,A
        POP     A
        CFI CFA_SP SP+-5
        LCALL   ?Subroutine4 & 0xFFFF
//  484             i_weidu++;
//  485           }
??CrossCallReturnLabel_11:
        LCALL   ??Subroutine31_0 & 0xFFFF
??CrossCallReturnLabel_84:
        JNZ     ??handle_27
//  486           uint i_N=i_weidu+1;
//  487           i=0;
//  488           while(Recdata_GPGGA[i_N+1]!=',')
//  489           {
//  490             i_N++;
??handle_28:
        LCALL   ?Subroutine16 & 0xFFFF
//  491           }
??CrossCallReturnLabel_79:
        JNZ     ??handle_28
//  492           uint i_JingDu=i_N+1;
        LCALL   ?Subroutine21 & 0xFFFF
//  493           i=0;
//  494           while(Recdata_GPGGA[i_JingDu+1]!=',')
??CrossCallReturnLabel_58:
        LCALL   ??Subroutine31_0 & 0xFFFF
??CrossCallReturnLabel_85:
        JZ      ??handle_1
//  495           {
//  496             JingDu[i++]=Recdata_GPGGA[i_JingDu+1];
        MOVX    A,@DPTR
        PUSH    A
        CFI CFA_SP SP+-6
        MOV     A,#JingDu & 0xff
        ADD     A,R2
        MOV     DPL,A
        MOV     A,#(JingDu >> 8) & 0xff
        ADDC    A,R3
        MOV     DPH,A
        POP     A
        CFI CFA_SP SP+-5
        LCALL   ?Subroutine4 & 0xFFFF
//  497             i_JingDu++;
//  498           }
//  499           /*for (uint i=0;i<6;i++)
//  500             UTC[i]=Recdata_GPRMC[i+1];
//  501           if (Recdata_GPRMC[14]==',')
//  502           {
//  503             for (uint i=0;i<9;i++)
//  504               WeiDu[i]='*';
//  505             for (uint i=0;i<10;i++)
//  506               JingDu[i]='*';
//  507           }
//  508           else
//  509           {
//  510             for (uint i=0;i<9;i++)
//  511               WeiDu[i]=Recdata_GPRMC[i+14];
//  512             for (uint i=0;i<10;i++)
//  513               JingDu[i]=Recdata_GPRMC[i+26];
//  514           }*/
//  515       }
??CrossCallReturnLabel_12:
        SJMP    ??CrossCallReturnLabel_58
??handle_21:
        MOVX    A,@DPTR
        XRL     A,#0x56
        JNZ     ??handle_1
        LCALL   ?Subroutine12 & 0xFFFF
??CrossCallReturnLabel_37:
        XRL     A,#0x54
        JNZ     ??handle_1
        LCALL   ?Subroutine11 & 0xFFFF
??CrossCallReturnLabel_34:
        XRL     A,#0x47
        JNZ     ??handle_1
//  516       else if(Recdata[check]=='$'&&Recdata[check+1]=='G'&&Recdata[check+2]=='P'
//  517            &&Recdata[check+3]=='V'&&Recdata[check+4]=='T'&&Recdata[check+5]=='G')
//  518       {
//  519           position=check+6;
        LCALL   ?Subroutine9 & 0xFFFF
??CrossCallReturnLabel_25:
        SJMP    ??CrossCallReturnLabel_67
//  520           while(Recdata_GPVTG_start<70&&Recdata[position++]!='$')
//  521           {
//  522             Recdata_GPVTG[Recdata_GPVTG_start++]=Recdata[position-1];
??handle_29:
        LCALL   ?Subroutine10 & 0xFFFF
??CrossCallReturnLabel_30:
        PUSH    A
        CFI CFA_SP SP+-6
        MOV     DPTR,#Recdata_GPVTG_start
        MOVX    A,@DPTR
        ADD     A,#Recdata_GPVTG & 0xff
        MOV     R0,A
        INC     DPTR
        MOVX    A,@DPTR
        ADDC    A,#(Recdata_GPVTG >> 8) & 0xff
        MOV     R1,A
        MOV     DPL,R0
        MOV     DPH,R1
        POP     A
        CFI CFA_SP SP+-5
        MOVX    @DPTR,A
        MOV     DPTR,#Recdata_GPVTG_start
        LCALL   ?Subroutine5 & 0xFFFF
//  523             Recdata_GPGSV_start=0;
//  524             Recdata_GPGSA_start=0;
//  525             Recdata_GPRMC_start=0;
??CrossCallReturnLabel_14:
        MOV     DPTR,#Recdata_GPRMC_start
        LCALL   ?Subroutine25 & 0xFFFF
//  526             Recdata_GPGGA_start=0;
//  527           }
??CrossCallReturnLabel_67:
        MOVX    @DPTR,A
        MOV     DPTR,#Recdata_GPVTG_start
        LCALL   ?Subroutine13 & 0xFFFF
//  528       }
??CrossCallReturnLabel_42:
        JNC     ??handle_1
        LCALL   ?Subroutine1 & 0xFFFF
??CrossCallReturnLabel_4:
        JNZ     ??handle_29
//  529       check=check+1;
??handle_1:
        MOV     DPTR,#check
        LCALL   ?Subroutine15 & 0xFFFF
//  530   } 	  
??CrossCallReturnLabel_46:
        MOV     DPTR,#check
        CLR     C
        MOVX    A,@DPTR
        SUBB    A,#0x27
        INC     DPTR
        MOVX    A,@DPTR
        SUBB    A,#0x1
        JNC     $+5
        LJMP    ??handle_0 & 0xFFFF
//  531 }
        POP     DPH
        CFI DPH0 SameValue
        CFI CFA_SP SP+-4
        POP     DPL
        CFI DPL0 SameValue
        CFI CFA_SP SP+-3
        LJMP    ?BRET
        CFI EndBlock cfiBlock18

        RSEG BANKED_CODE:CODE:NOROOT(0)
?Subroutine22:
        CFI Block cfiCond19 Using cfiCommon0
        CFI NoFunction
        CFI Conditional ??CrossCallReturnLabel_59
        CFI DPL0 Frame(CFA_SP, 4)
        CFI DPH0 Frame(CFA_SP, 5)
        CFI CFA_SP SP+-5
        CFI Block cfiCond20 Using cfiCommon0
        CFI (cfiCond20) NoFunction
        CFI (cfiCond20) Conditional ??CrossCallReturnLabel_60
        CFI (cfiCond20) DPL0 Frame(CFA_SP, 4)
        CFI (cfiCond20) DPH0 Frame(CFA_SP, 5)
        CFI (cfiCond20) CFA_SP SP+-5
        CFI Block cfiCond21 Using cfiCommon0
        CFI (cfiCond21) NoFunction
        CFI (cfiCond21) Conditional ??CrossCallReturnLabel_61
        CFI (cfiCond21) DPL0 Frame(CFA_SP, 4)
        CFI (cfiCond21) DPH0 Frame(CFA_SP, 5)
        CFI (cfiCond21) CFA_SP SP+-5
        CFI Block cfiCond22 Using cfiCommon0
        CFI (cfiCond22) NoFunction
        CFI (cfiCond22) Conditional ??CrossCallReturnLabel_62
        CFI (cfiCond22) DPL0 Frame(CFA_SP, 4)
        CFI (cfiCond22) DPH0 Frame(CFA_SP, 5)
        CFI (cfiCond22) CFA_SP SP+-5
        CFI Block cfiCond23 Using cfiCommon0
        CFI (cfiCond23) NoFunction
        CFI (cfiCond23) Conditional ??CrossCallReturnLabel_63
        CFI (cfiCond23) DPL0 Frame(CFA_SP, 4)
        CFI (cfiCond23) DPH0 Frame(CFA_SP, 5)
        CFI (cfiCond23) CFA_SP SP+-5
        CFI Block cfiCond24 Using cfiCommon0
        CFI (cfiCond24) NoFunction
        CFI (cfiCond24) Conditional ??CrossCallReturnLabel_64
        CFI (cfiCond24) DPL0 Frame(CFA_SP, 4)
        CFI (cfiCond24) DPH0 Frame(CFA_SP, 5)
        CFI (cfiCond24) CFA_SP SP+-5
        CFI Block cfiPicker25 Using cfiCommon1
        CFI (cfiPicker25) NoFunction
        CFI (cfiPicker25) Picker
        MOV     A,#(Recdata_GPGGA + 1) & 0xff
        ADD     A,R2
        MOV     DPL,A
        MOV     A,#((Recdata_GPGGA + 1) >> 8) & 0xff
        ADDC    A,R3
        MOV     DPH,A
        MOVX    A,@DPTR
        XRL     A,#0x2c
        RET
        CFI EndBlock cfiCond19
        CFI EndBlock cfiCond20
        CFI EndBlock cfiCond21
        CFI EndBlock cfiCond22
        CFI EndBlock cfiCond23
        CFI EndBlock cfiCond24
        CFI EndBlock cfiPicker25

        RSEG BANKED_CODE:CODE:NOROOT(0)
?Subroutine21:
        CFI Block cfiCond26 Using cfiCommon0
        CFI NoFunction
        CFI Conditional ??CrossCallReturnLabel_57
        CFI DPL0 Frame(CFA_SP, 4)
        CFI DPH0 Frame(CFA_SP, 5)
        CFI CFA_SP SP+-5
        CFI Block cfiCond27 Using cfiCommon0
        CFI (cfiCond27) NoFunction
        CFI (cfiCond27) Conditional ??CrossCallReturnLabel_58
        CFI (cfiCond27) DPL0 Frame(CFA_SP, 4)
        CFI (cfiCond27) DPH0 Frame(CFA_SP, 5)
        CFI (cfiCond27) CFA_SP SP+-5
        CFI Block cfiPicker28 Using cfiCommon1
        CFI (cfiPicker28) NoFunction
        CFI (cfiPicker28) Picker
        LCALL   ?Subroutine27 & 0xFFFF
??CrossCallReturnLabel_71:
        MOV     R2,#0x0
        MOV     R3,#0x0
        RET
        CFI EndBlock cfiCond26
        CFI EndBlock cfiCond27
        CFI EndBlock cfiPicker28

        RSEG BANKED_CODE:CODE:NOROOT(0)
?Subroutine17:
        CFI Block cfiCond29 Using cfiCommon0
        CFI NoFunction
        CFI Conditional ??CrossCallReturnLabel_74
        CFI DPL0 Frame(CFA_SP, 4)
        CFI DPH0 Frame(CFA_SP, 5)
        CFI CFA_SP SP+-5
        CFI Block cfiCond30 Using cfiCommon0
        CFI (cfiCond30) NoFunction
        CFI (cfiCond30) Conditional ??CrossCallReturnLabel_75
        CFI (cfiCond30) DPL0 Frame(CFA_SP, 4)
        CFI (cfiCond30) DPH0 Frame(CFA_SP, 5)
        CFI (cfiCond30) CFA_SP SP+-5
        CFI Block cfiCond31 Using cfiCommon0
        CFI (cfiCond31) NoFunction
        CFI (cfiCond31) Conditional ??CrossCallReturnLabel_76
        CFI (cfiCond31) DPL0 Frame(CFA_SP, 4)
        CFI (cfiCond31) DPH0 Frame(CFA_SP, 5)
        CFI (cfiCond31) CFA_SP SP+-5
        CFI Block cfiPicker32 Using cfiCommon1
        CFI (cfiPicker32) NoFunction
        CFI (cfiPicker32) Picker
        MOV     A,R0
        ADD     A,#0x1
        MOV     R2,A
        MOV     A,R1
        CFI EndBlock cfiCond29
        CFI EndBlock cfiCond30
        CFI EndBlock cfiCond31
        CFI EndBlock cfiPicker32
        REQUIRE ??Subroutine29_0
        ; // Fall through to label ??Subroutine29_0

        RSEG BANKED_CODE:CODE:NOROOT(0)
??Subroutine29_0:
        CFI Block cfiCond33 Using cfiCommon0
        CFI NoFunction
        CFI Conditional ??CrossCallReturnLabel_77
        CFI DPL0 Frame(CFA_SP, 4)
        CFI DPH0 Frame(CFA_SP, 5)
        CFI CFA_SP SP+-5
        CFI Block cfiCond34 Using cfiCommon0
        CFI (cfiCond34) NoFunction
        CFI (cfiCond34) Conditional ??CrossCallReturnLabel_74
        CFI (cfiCond34) DPL0 Frame(CFA_SP, 4)
        CFI (cfiCond34) DPH0 Frame(CFA_SP, 5)
        CFI (cfiCond34) CFA_SP SP+-5
        CFI Block cfiCond35 Using cfiCommon0
        CFI (cfiCond35) NoFunction
        CFI (cfiCond35) Conditional ??CrossCallReturnLabel_75
        CFI (cfiCond35) DPL0 Frame(CFA_SP, 4)
        CFI (cfiCond35) DPH0 Frame(CFA_SP, 5)
        CFI (cfiCond35) CFA_SP SP+-5
        CFI Block cfiCond36 Using cfiCommon0
        CFI (cfiCond36) NoFunction
        CFI (cfiCond36) Conditional ??CrossCallReturnLabel_76
        CFI (cfiCond36) DPL0 Frame(CFA_SP, 4)
        CFI (cfiCond36) DPH0 Frame(CFA_SP, 5)
        CFI (cfiCond36) CFA_SP SP+-5
        CFI Block cfiPicker37 Using cfiCommon1
        CFI (cfiPicker37) NoFunction
        CFI (cfiPicker37) Picker
        ADDC    A,#0x0
        MOV     R3,A
        MOV     R0,#0x0
        MOV     R1,#0x0
        RET
        CFI EndBlock cfiCond33
        CFI EndBlock cfiCond34
        CFI EndBlock cfiCond35
        CFI EndBlock cfiCond36
        CFI EndBlock cfiPicker37

        RSEG BANKED_CODE:CODE:NOROOT(0)
?Subroutine16:
        CFI Block cfiCond38 Using cfiCommon0
        CFI NoFunction
        CFI Conditional ??CrossCallReturnLabel_78
        CFI DPL0 Frame(CFA_SP, 4)
        CFI DPH0 Frame(CFA_SP, 5)
        CFI CFA_SP SP+-5
        CFI Block cfiCond39 Using cfiCommon0
        CFI (cfiCond39) NoFunction
        CFI (cfiCond39) Conditional ??CrossCallReturnLabel_79
        CFI (cfiCond39) DPL0 Frame(CFA_SP, 4)
        CFI (cfiCond39) DPH0 Frame(CFA_SP, 5)
        CFI (cfiCond39) CFA_SP SP+-5
        CFI Block cfiPicker40 Using cfiCommon1
        CFI (cfiPicker40) NoFunction
        CFI (cfiPicker40) Picker
        MOV     A,R0
        ADD     A,#0x1
        INC     R0
        MOV     A,R1
        CFI EndBlock cfiCond38
        CFI EndBlock cfiCond39
        CFI EndBlock cfiPicker40
        REQUIRE ??Subroutine30_0
        ; // Fall through to label ??Subroutine30_0

        RSEG BANKED_CODE:CODE:NOROOT(0)
??Subroutine30_0:
        CFI Block cfiCond41 Using cfiCommon0
        CFI NoFunction
        CFI Conditional ??CrossCallReturnLabel_80
        CFI DPL0 Frame(CFA_SP, 4)
        CFI DPH0 Frame(CFA_SP, 5)
        CFI CFA_SP SP+-5
        CFI Block cfiCond42 Using cfiCommon0
        CFI (cfiCond42) NoFunction
        CFI (cfiCond42) Conditional ??CrossCallReturnLabel_81
        CFI (cfiCond42) DPL0 Frame(CFA_SP, 4)
        CFI (cfiCond42) DPH0 Frame(CFA_SP, 5)
        CFI (cfiCond42) CFA_SP SP+-5
        CFI Block cfiCond43 Using cfiCommon0
        CFI (cfiCond43) NoFunction
        CFI (cfiCond43) Conditional ??CrossCallReturnLabel_82
        CFI (cfiCond43) DPL0 Frame(CFA_SP, 4)
        CFI (cfiCond43) DPH0 Frame(CFA_SP, 5)
        CFI (cfiCond43) CFA_SP SP+-5
        CFI Block cfiCond44 Using cfiCommon0
        CFI (cfiCond44) NoFunction
        CFI (cfiCond44) Conditional ??CrossCallReturnLabel_78
        CFI (cfiCond44) DPL0 Frame(CFA_SP, 4)
        CFI (cfiCond44) DPH0 Frame(CFA_SP, 5)
        CFI (cfiCond44) CFA_SP SP+-5
        CFI Block cfiCond45 Using cfiCommon0
        CFI (cfiCond45) NoFunction
        CFI (cfiCond45) Conditional ??CrossCallReturnLabel_79
        CFI (cfiCond45) DPL0 Frame(CFA_SP, 4)
        CFI (cfiCond45) DPH0 Frame(CFA_SP, 5)
        CFI (cfiCond45) CFA_SP SP+-5
        CFI Block cfiPicker46 Using cfiCommon1
        CFI (cfiPicker46) NoFunction
        CFI (cfiPicker46) Picker
        ADDC    A,#0x0
        MOV     R1,A
        CFI EndBlock cfiCond41
        CFI EndBlock cfiCond42
        CFI EndBlock cfiCond43
        CFI EndBlock cfiCond44
        CFI EndBlock cfiCond45
        CFI EndBlock cfiPicker46
        REQUIRE ??Subroutine31_0
        ; // Fall through to label ??Subroutine31_0

        RSEG BANKED_CODE:CODE:NOROOT(0)
??Subroutine31_0:
        CFI Block cfiCond47 Using cfiCommon0
        CFI NoFunction
        CFI Conditional ??CrossCallReturnLabel_83
        CFI DPL0 Frame(CFA_SP, 4)
        CFI DPH0 Frame(CFA_SP, 5)
        CFI CFA_SP SP+-5
        CFI Block cfiCond48 Using cfiCommon0
        CFI (cfiCond48) NoFunction
        CFI (cfiCond48) Conditional ??CrossCallReturnLabel_84
        CFI (cfiCond48) DPL0 Frame(CFA_SP, 4)
        CFI (cfiCond48) DPH0 Frame(CFA_SP, 5)
        CFI (cfiCond48) CFA_SP SP+-5
        CFI Block cfiCond49 Using cfiCommon0
        CFI (cfiCond49) NoFunction
        CFI (cfiCond49) Conditional ??CrossCallReturnLabel_85
        CFI (cfiCond49) DPL0 Frame(CFA_SP, 4)
        CFI (cfiCond49) DPH0 Frame(CFA_SP, 5)
        CFI (cfiCond49) CFA_SP SP+-5
        CFI Block cfiCond50 Using cfiCommon0
        CFI (cfiCond50) NoFunction
        CFI (cfiCond50) Conditional ??CrossCallReturnLabel_80
        CFI (cfiCond50) DPL0 Frame(CFA_SP, 4)
        CFI (cfiCond50) DPH0 Frame(CFA_SP, 5)
        CFI (cfiCond50) CFA_SP SP+-5
        CFI Block cfiCond51 Using cfiCommon0
        CFI (cfiCond51) NoFunction
        CFI (cfiCond51) Conditional ??CrossCallReturnLabel_81
        CFI (cfiCond51) DPL0 Frame(CFA_SP, 4)
        CFI (cfiCond51) DPH0 Frame(CFA_SP, 5)
        CFI (cfiCond51) CFA_SP SP+-5
        CFI Block cfiCond52 Using cfiCommon0
        CFI (cfiCond52) NoFunction
        CFI (cfiCond52) Conditional ??CrossCallReturnLabel_82
        CFI (cfiCond52) DPL0 Frame(CFA_SP, 4)
        CFI (cfiCond52) DPH0 Frame(CFA_SP, 5)
        CFI (cfiCond52) CFA_SP SP+-5
        CFI Block cfiCond53 Using cfiCommon0
        CFI (cfiCond53) NoFunction
        CFI (cfiCond53) Conditional ??CrossCallReturnLabel_78
        CFI (cfiCond53) DPL0 Frame(CFA_SP, 4)
        CFI (cfiCond53) DPH0 Frame(CFA_SP, 5)
        CFI (cfiCond53) CFA_SP SP+-5
        CFI Block cfiCond54 Using cfiCommon0
        CFI (cfiCond54) NoFunction
        CFI (cfiCond54) Conditional ??CrossCallReturnLabel_79
        CFI (cfiCond54) DPL0 Frame(CFA_SP, 4)
        CFI (cfiCond54) DPH0 Frame(CFA_SP, 5)
        CFI (cfiCond54) CFA_SP SP+-5
        CFI Block cfiPicker55 Using cfiCommon1
        CFI (cfiPicker55) NoFunction
        CFI (cfiPicker55) Picker
        MOV     A,#(Recdata_GPGGA + 1) & 0xff
        ADD     A,R0
        MOV     DPL,A
        MOV     A,#((Recdata_GPGGA + 1) >> 8) & 0xff
        ADDC    A,R1
        MOV     DPH,A
        MOVX    A,@DPTR
        XRL     A,#0x2c
        RET
        CFI EndBlock cfiCond47
        CFI EndBlock cfiCond48
        CFI EndBlock cfiCond49
        CFI EndBlock cfiCond50
        CFI EndBlock cfiCond51
        CFI EndBlock cfiCond52
        CFI EndBlock cfiCond53
        CFI EndBlock cfiCond54
        CFI EndBlock cfiPicker55

        RSEG BANKED_CODE:CODE:NOROOT(0)
?Subroutine15:
        CFI Block cfiCond56 Using cfiCommon0
        CFI NoFunction
        CFI Conditional ??CrossCallReturnLabel_45
        CFI DPL0 Frame(CFA_SP, 4)
        CFI DPH0 Frame(CFA_SP, 5)
        CFI CFA_SP SP+-5
        CFI Block cfiCond57 Using cfiCommon0
        CFI (cfiCond57) NoFunction
        CFI (cfiCond57) Conditional ??CrossCallReturnLabel_46
        CFI (cfiCond57) DPL0 Frame(CFA_SP, 4)
        CFI (cfiCond57) DPH0 Frame(CFA_SP, 5)
        CFI (cfiCond57) CFA_SP SP+-5
        CFI Block cfiPicker58 Using cfiCommon1
        CFI (cfiPicker58) NoFunction
        CFI (cfiPicker58) Picker
        LCALL   ?Subroutine28 & 0xFFFF
??CrossCallReturnLabel_72:
        RET
        CFI EndBlock cfiCond56
        CFI EndBlock cfiCond57
        CFI EndBlock cfiPicker58

        RSEG BANKED_CODE:CODE:NOROOT(0)
?Subroutine28:
        CFI Block cfiCond59 Using cfiCommon0
        CFI NoFunction
        CFI Conditional ??CrossCallReturnLabel_72, ??CrossCallReturnLabel_45
        CFI DPL0 Frame(CFA_SP, 4)
        CFI DPH0 Frame(CFA_SP, 5)
        CFI CFA_SP SP+-5
        CFI Block cfiCond60 Using cfiCommon0
        CFI (cfiCond60) NoFunction
        CFI (cfiCond60) Conditional ??CrossCallReturnLabel_72, ??CrossCallReturnLabel_46
        CFI (cfiCond60) DPL0 Frame(CFA_SP, 4)
        CFI (cfiCond60) DPH0 Frame(CFA_SP, 5)
        CFI (cfiCond60) CFA_SP SP+-5
        CFI Block cfiCond61 Using cfiCommon0
        CFI (cfiCond61) NoFunction
        CFI (cfiCond61) Conditional ??CrossCallReturnLabel_73, ??CrossCallReturnLabel_65, ??CrossCallReturnLabel_17
        CFI (cfiCond61) DPL0 Frame(CFA_SP, 4)
        CFI (cfiCond61) DPH0 Frame(CFA_SP, 5)
        CFI (cfiCond61) CFA_SP SP+-5
        CFI Block cfiCond62 Using cfiCommon0
        CFI (cfiCond62) NoFunction
        CFI (cfiCond62) Conditional ??CrossCallReturnLabel_73, ??CrossCallReturnLabel_65, ??CrossCallReturnLabel_18
        CFI (cfiCond62) DPL0 Frame(CFA_SP, 4)
        CFI (cfiCond62) DPH0 Frame(CFA_SP, 5)
        CFI (cfiCond62) CFA_SP SP+-5
        CFI Block cfiCond63 Using cfiCommon0
        CFI (cfiCond63) NoFunction
        CFI (cfiCond63) Conditional ??CrossCallReturnLabel_73, ??CrossCallReturnLabel_66, ??CrossCallReturnLabel_13
        CFI (cfiCond63) DPL0 Frame(CFA_SP, 4)
        CFI (cfiCond63) DPH0 Frame(CFA_SP, 5)
        CFI (cfiCond63) CFA_SP SP+-5
        CFI Block cfiCond64 Using cfiCommon0
        CFI (cfiCond64) NoFunction
        CFI (cfiCond64) Conditional ??CrossCallReturnLabel_73, ??CrossCallReturnLabel_66, ??CrossCallReturnLabel_14
        CFI (cfiCond64) DPL0 Frame(CFA_SP, 4)
        CFI (cfiCond64) DPH0 Frame(CFA_SP, 5)
        CFI (cfiCond64) CFA_SP SP+-5
        CFI Block cfiPicker65 Using cfiCommon1
        CFI (cfiPicker65) NoFunction
        CFI (cfiPicker65) Picker
        MOVX    A,@DPTR
        ADD     A,#0x1
        MOVX    @DPTR,A
        INC     DPTR
        MOVX    A,@DPTR
        ADDC    A,#0x0
        MOVX    @DPTR,A
        RET
        CFI EndBlock cfiCond59
        CFI EndBlock cfiCond60
        CFI EndBlock cfiCond61
        CFI EndBlock cfiCond62
        CFI EndBlock cfiCond63
        CFI EndBlock cfiCond64
        CFI EndBlock cfiPicker65

        RSEG BANKED_CODE:CODE:NOROOT(0)
?Subroutine13:
        CFI Block cfiCond66 Using cfiCommon0
        CFI NoFunction
        CFI Conditional ??CrossCallReturnLabel_38
        CFI DPL0 Frame(CFA_SP, 4)
        CFI DPH0 Frame(CFA_SP, 5)
        CFI CFA_SP SP+-5
        CFI Block cfiCond67 Using cfiCommon0
        CFI (cfiCond67) NoFunction
        CFI (cfiCond67) Conditional ??CrossCallReturnLabel_39
        CFI (cfiCond67) DPL0 Frame(CFA_SP, 4)
        CFI (cfiCond67) DPH0 Frame(CFA_SP, 5)
        CFI (cfiCond67) CFA_SP SP+-5
        CFI Block cfiCond68 Using cfiCommon0
        CFI (cfiCond68) NoFunction
        CFI (cfiCond68) Conditional ??CrossCallReturnLabel_40
        CFI (cfiCond68) DPL0 Frame(CFA_SP, 4)
        CFI (cfiCond68) DPH0 Frame(CFA_SP, 5)
        CFI (cfiCond68) CFA_SP SP+-5
        CFI Block cfiCond69 Using cfiCommon0
        CFI (cfiCond69) NoFunction
        CFI (cfiCond69) Conditional ??CrossCallReturnLabel_41
        CFI (cfiCond69) DPL0 Frame(CFA_SP, 4)
        CFI (cfiCond69) DPH0 Frame(CFA_SP, 5)
        CFI (cfiCond69) CFA_SP SP+-5
        CFI Block cfiCond70 Using cfiCommon0
        CFI (cfiCond70) NoFunction
        CFI (cfiCond70) Conditional ??CrossCallReturnLabel_42
        CFI (cfiCond70) DPL0 Frame(CFA_SP, 4)
        CFI (cfiCond70) DPH0 Frame(CFA_SP, 5)
        CFI (cfiCond70) CFA_SP SP+-5
        CFI Block cfiPicker71 Using cfiCommon1
        CFI (cfiPicker71) NoFunction
        CFI (cfiPicker71) Picker
        CLR     C
        MOVX    A,@DPTR
        SUBB    A,#0x46
        INC     DPTR
        MOVX    A,@DPTR
        SUBB    A,#0x0
        RET
        CFI EndBlock cfiCond66
        CFI EndBlock cfiCond67
        CFI EndBlock cfiCond68
        CFI EndBlock cfiCond69
        CFI EndBlock cfiCond70
        CFI EndBlock cfiPicker71

        RSEG BANKED_CODE:CODE:NOROOT(0)
?Subroutine12:
        CFI Block cfiCond72 Using cfiCommon0
        CFI NoFunction
        CFI Conditional ??CrossCallReturnLabel_35
        CFI DPL0 Frame(CFA_SP, 4)
        CFI DPH0 Frame(CFA_SP, 5)
        CFI CFA_SP SP+-5
        CFI Block cfiCond73 Using cfiCommon0
        CFI (cfiCond73) NoFunction
        CFI (cfiCond73) Conditional ??CrossCallReturnLabel_36
        CFI (cfiCond73) DPL0 Frame(CFA_SP, 4)
        CFI (cfiCond73) DPH0 Frame(CFA_SP, 5)
        CFI (cfiCond73) CFA_SP SP+-5
        CFI Block cfiCond74 Using cfiCommon0
        CFI (cfiCond74) NoFunction
        CFI (cfiCond74) Conditional ??CrossCallReturnLabel_37
        CFI (cfiCond74) DPL0 Frame(CFA_SP, 4)
        CFI (cfiCond74) DPH0 Frame(CFA_SP, 5)
        CFI (cfiCond74) CFA_SP SP+-5
        CFI Block cfiPicker75 Using cfiCommon1
        CFI (cfiPicker75) NoFunction
        CFI (cfiPicker75) Picker
        MOV     DPTR,#check
        MOVX    A,@DPTR
        ADD     A,#(Recdata + 4) & 0xff
        INC     R0
        INC     DPTR
        MOVX    A,@DPTR
        ADDC    A,#((Recdata + 4) >> 8) & 0xff
        MOV     R1,A
        MOV     DPL,R0
        MOV     DPH,R1
        MOVX    A,@DPTR
        RET
        CFI EndBlock cfiCond72
        CFI EndBlock cfiCond73
        CFI EndBlock cfiCond74
        CFI EndBlock cfiPicker75

        RSEG BANKED_CODE:CODE:NOROOT(0)
?Subroutine11:
        CFI Block cfiCond76 Using cfiCommon0
        CFI NoFunction
        CFI Conditional ??CrossCallReturnLabel_31
        CFI DPL0 Frame(CFA_SP, 4)
        CFI DPH0 Frame(CFA_SP, 5)
        CFI CFA_SP SP+-5
        CFI Block cfiCond77 Using cfiCommon0
        CFI (cfiCond77) NoFunction
        CFI (cfiCond77) Conditional ??CrossCallReturnLabel_32
        CFI (cfiCond77) DPL0 Frame(CFA_SP, 4)
        CFI (cfiCond77) DPH0 Frame(CFA_SP, 5)
        CFI (cfiCond77) CFA_SP SP+-5
        CFI Block cfiCond78 Using cfiCommon0
        CFI (cfiCond78) NoFunction
        CFI (cfiCond78) Conditional ??CrossCallReturnLabel_33
        CFI (cfiCond78) DPL0 Frame(CFA_SP, 4)
        CFI (cfiCond78) DPH0 Frame(CFA_SP, 5)
        CFI (cfiCond78) CFA_SP SP+-5
        CFI Block cfiCond79 Using cfiCommon0
        CFI (cfiCond79) NoFunction
        CFI (cfiCond79) Conditional ??CrossCallReturnLabel_34
        CFI (cfiCond79) DPL0 Frame(CFA_SP, 4)
        CFI (cfiCond79) DPH0 Frame(CFA_SP, 5)
        CFI (cfiCond79) CFA_SP SP+-5
        CFI Block cfiPicker80 Using cfiCommon1
        CFI (cfiPicker80) NoFunction
        CFI (cfiPicker80) Picker
        MOV     DPTR,#check
        MOVX    A,@DPTR
        ADD     A,#(Recdata + 5) & 0xff
        INC     R0
        INC     DPTR
        MOVX    A,@DPTR
        ADDC    A,#((Recdata + 5) >> 8) & 0xff
        MOV     R1,A
        MOV     DPL,R0
        MOV     DPH,R1
        MOVX    A,@DPTR
        RET
        CFI EndBlock cfiCond76
        CFI EndBlock cfiCond77
        CFI EndBlock cfiCond78
        CFI EndBlock cfiCond79
        CFI EndBlock cfiPicker80

        RSEG BANKED_CODE:CODE:NOROOT(0)
?Subroutine10:
        CFI Block cfiCond81 Using cfiCommon0
        CFI NoFunction
        CFI Conditional ??CrossCallReturnLabel_26
        CFI DPL0 Frame(CFA_SP, 4)
        CFI DPH0 Frame(CFA_SP, 5)
        CFI CFA_SP SP+-5
        CFI Block cfiCond82 Using cfiCommon0
        CFI (cfiCond82) NoFunction
        CFI (cfiCond82) Conditional ??CrossCallReturnLabel_27
        CFI (cfiCond82) DPL0 Frame(CFA_SP, 4)
        CFI (cfiCond82) DPH0 Frame(CFA_SP, 5)
        CFI (cfiCond82) CFA_SP SP+-5
        CFI Block cfiCond83 Using cfiCommon0
        CFI (cfiCond83) NoFunction
        CFI (cfiCond83) Conditional ??CrossCallReturnLabel_28
        CFI (cfiCond83) DPL0 Frame(CFA_SP, 4)
        CFI (cfiCond83) DPH0 Frame(CFA_SP, 5)
        CFI (cfiCond83) CFA_SP SP+-5
        CFI Block cfiCond84 Using cfiCommon0
        CFI (cfiCond84) NoFunction
        CFI (cfiCond84) Conditional ??CrossCallReturnLabel_29
        CFI (cfiCond84) DPL0 Frame(CFA_SP, 4)
        CFI (cfiCond84) DPH0 Frame(CFA_SP, 5)
        CFI (cfiCond84) CFA_SP SP+-5
        CFI Block cfiCond85 Using cfiCommon0
        CFI (cfiCond85) NoFunction
        CFI (cfiCond85) Conditional ??CrossCallReturnLabel_30
        CFI (cfiCond85) DPL0 Frame(CFA_SP, 4)
        CFI (cfiCond85) DPH0 Frame(CFA_SP, 5)
        CFI (cfiCond85) CFA_SP SP+-5
        CFI Block cfiPicker86 Using cfiCommon1
        CFI (cfiPicker86) NoFunction
        CFI (cfiPicker86) Picker
        MOV     DPTR,#position
        MOVX    A,@DPTR
        ADD     A,#(Recdata + 255) & 0xff
        MOV     R0,A
        INC     DPTR
        MOVX    A,@DPTR
        ADDC    A,#((Recdata - 1) >> 8) & 0xff
        MOV     R1,A
        MOV     DPL,R0
        MOV     DPH,R1
        MOVX    A,@DPTR
        RET
        CFI EndBlock cfiCond81
        CFI EndBlock cfiCond82
        CFI EndBlock cfiCond83
        CFI EndBlock cfiCond84
        CFI EndBlock cfiCond85
        CFI EndBlock cfiPicker86

        RSEG BANKED_CODE:CODE:NOROOT(0)
?Subroutine9:
        CFI Block cfiCond87 Using cfiCommon0
        CFI NoFunction
        CFI Conditional ??CrossCallReturnLabel_21
        CFI DPL0 Frame(CFA_SP, 4)
        CFI DPH0 Frame(CFA_SP, 5)
        CFI CFA_SP SP+-5
        CFI Block cfiCond88 Using cfiCommon0
        CFI (cfiCond88) NoFunction
        CFI (cfiCond88) Conditional ??CrossCallReturnLabel_22
        CFI (cfiCond88) DPL0 Frame(CFA_SP, 4)
        CFI (cfiCond88) DPH0 Frame(CFA_SP, 5)
        CFI (cfiCond88) CFA_SP SP+-5
        CFI Block cfiCond89 Using cfiCommon0
        CFI (cfiCond89) NoFunction
        CFI (cfiCond89) Conditional ??CrossCallReturnLabel_23
        CFI (cfiCond89) DPL0 Frame(CFA_SP, 4)
        CFI (cfiCond89) DPH0 Frame(CFA_SP, 5)
        CFI (cfiCond89) CFA_SP SP+-5
        CFI Block cfiCond90 Using cfiCommon0
        CFI (cfiCond90) NoFunction
        CFI (cfiCond90) Conditional ??CrossCallReturnLabel_24
        CFI (cfiCond90) DPL0 Frame(CFA_SP, 4)
        CFI (cfiCond90) DPH0 Frame(CFA_SP, 5)
        CFI (cfiCond90) CFA_SP SP+-5
        CFI Block cfiCond91 Using cfiCommon0
        CFI (cfiCond91) NoFunction
        CFI (cfiCond91) Conditional ??CrossCallReturnLabel_25
        CFI (cfiCond91) DPL0 Frame(CFA_SP, 4)
        CFI (cfiCond91) DPH0 Frame(CFA_SP, 5)
        CFI (cfiCond91) CFA_SP SP+-5
        CFI Block cfiPicker92 Using cfiCommon1
        CFI (cfiPicker92) NoFunction
        CFI (cfiPicker92) Picker
        MOV     DPTR,#check
        MOVX    A,@DPTR
        ADD     A,#0x6
        MOV     R0,A
        INC     DPTR
        MOVX    A,@DPTR
        ADDC    A,#0x0
        MOV     R1,A
        MOV     DPTR,#position
        MOV     A,R0
        MOVX    @DPTR,A
        INC     DPTR
        MOV     A,R1
        RET
        CFI EndBlock cfiCond87
        CFI EndBlock cfiCond88
        CFI EndBlock cfiCond89
        CFI EndBlock cfiCond90
        CFI EndBlock cfiCond91
        CFI EndBlock cfiPicker92

        RSEG BANKED_CODE:CODE:NOROOT(0)
?Subroutine8:
        CFI Block cfiCond93 Using cfiCommon0
        CFI NoFunction
        CFI Conditional ??CrossCallReturnLabel_19
        CFI DPL0 Frame(CFA_SP, 4)
        CFI DPH0 Frame(CFA_SP, 5)
        CFI CFA_SP SP+-5
        CFI Block cfiCond94 Using cfiCommon0
        CFI (cfiCond94) NoFunction
        CFI (cfiCond94) Conditional ??CrossCallReturnLabel_20
        CFI (cfiCond94) DPL0 Frame(CFA_SP, 4)
        CFI (cfiCond94) DPH0 Frame(CFA_SP, 5)
        CFI (cfiCond94) CFA_SP SP+-5
        CFI Block cfiPicker95 Using cfiCommon1
        CFI (cfiPicker95) NoFunction
        CFI (cfiPicker95) Picker
        LCALL   ?Subroutine26 & 0xFFFF
??CrossCallReturnLabel_91:
        RET
        CFI EndBlock cfiCond93
        CFI EndBlock cfiCond94
        CFI EndBlock cfiPicker95

        RSEG BANKED_CODE:CODE:NOROOT(0)
?Subroutine7:
        CFI Block cfiCond96 Using cfiCommon0
        CFI NoFunction
        CFI Conditional ??CrossCallReturnLabel_17
        CFI DPL0 Frame(CFA_SP, 4)
        CFI DPH0 Frame(CFA_SP, 5)
        CFI CFA_SP SP+-5
        CFI Block cfiCond97 Using cfiCommon0
        CFI (cfiCond97) NoFunction
        CFI (cfiCond97) Conditional ??CrossCallReturnLabel_18
        CFI (cfiCond97) DPL0 Frame(CFA_SP, 4)
        CFI (cfiCond97) DPH0 Frame(CFA_SP, 5)
        CFI (cfiCond97) CFA_SP SP+-5
        CFI Block cfiPicker98 Using cfiCommon1
        CFI (cfiPicker98) NoFunction
        CFI (cfiPicker98) Picker
        LCALL   ?Subroutine24 & 0xFFFF
??CrossCallReturnLabel_65:
        RET
        CFI EndBlock cfiCond96
        CFI EndBlock cfiCond97
        CFI EndBlock cfiPicker98

        RSEG BANKED_CODE:CODE:NOROOT(0)
?Subroutine24:
        CFI Block cfiCond99 Using cfiCommon0
        CFI NoFunction
        CFI Conditional ??CrossCallReturnLabel_65, ??CrossCallReturnLabel_17
        CFI DPL0 Frame(CFA_SP, 4)
        CFI DPH0 Frame(CFA_SP, 5)
        CFI CFA_SP SP+-5
        CFI Block cfiCond100 Using cfiCommon0
        CFI (cfiCond100) NoFunction
        CFI (cfiCond100) Conditional ??CrossCallReturnLabel_65, ??CrossCallReturnLabel_18
        CFI (cfiCond100) DPL0 Frame(CFA_SP, 4)
        CFI (cfiCond100) DPH0 Frame(CFA_SP, 5)
        CFI (cfiCond100) CFA_SP SP+-5
        CFI Block cfiCond101 Using cfiCommon0
        CFI (cfiCond101) NoFunction
        CFI (cfiCond101) Conditional ??CrossCallReturnLabel_66, ??CrossCallReturnLabel_13
        CFI (cfiCond101) DPL0 Frame(CFA_SP, 4)
        CFI (cfiCond101) DPH0 Frame(CFA_SP, 5)
        CFI (cfiCond101) CFA_SP SP+-5
        CFI Block cfiCond102 Using cfiCommon0
        CFI (cfiCond102) NoFunction
        CFI (cfiCond102) Conditional ??CrossCallReturnLabel_66, ??CrossCallReturnLabel_14
        CFI (cfiCond102) DPL0 Frame(CFA_SP, 4)
        CFI (cfiCond102) DPH0 Frame(CFA_SP, 5)
        CFI (cfiCond102) CFA_SP SP+-5
        CFI Block cfiPicker103 Using cfiCommon1
        CFI (cfiPicker103) NoFunction
        CFI (cfiPicker103) Picker
        LCALL   ?Subroutine28 & 0xFFFF
??CrossCallReturnLabel_73:
        MOV     DPTR,#Recdata_GPGSV_start
        RET
        CFI EndBlock cfiCond99
        CFI EndBlock cfiCond100
        CFI EndBlock cfiCond101
        CFI EndBlock cfiCond102
        CFI EndBlock cfiPicker103

        RSEG BANKED_CODE:CODE:NOROOT(0)
?Subroutine6:
        CFI Block cfiCond104 Using cfiCommon0
        CFI NoFunction
        CFI Conditional ??CrossCallReturnLabel_15
        CFI DPL0 Frame(CFA_SP, 4)
        CFI DPH0 Frame(CFA_SP, 5)
        CFI CFA_SP SP+-5
        CFI Block cfiCond105 Using cfiCommon0
        CFI (cfiCond105) NoFunction
        CFI (cfiCond105) Conditional ??CrossCallReturnLabel_16
        CFI (cfiCond105) DPL0 Frame(CFA_SP, 4)
        CFI (cfiCond105) DPH0 Frame(CFA_SP, 5)
        CFI (cfiCond105) CFA_SP SP+-5
        CFI Block cfiPicker106 Using cfiCommon1
        CFI (cfiPicker106) NoFunction
        CFI (cfiPicker106) Picker
        CLR     A
        LCALL   ?Subroutine25 & 0xFFFF
??CrossCallReturnLabel_68:
        MOVX    @DPTR,A
        RET
        CFI EndBlock cfiCond104
        CFI EndBlock cfiCond105
        CFI EndBlock cfiPicker106

        RSEG BANKED_CODE:CODE:NOROOT(0)
?Subroutine25:
        CFI Block cfiCond107 Using cfiCommon0
        CFI NoFunction
        CFI Conditional ??CrossCallReturnLabel_67
        CFI DPL0 Frame(CFA_SP, 4)
        CFI DPH0 Frame(CFA_SP, 5)
        CFI CFA_SP SP+-5
        CFI Block cfiCond108 Using cfiCommon0
        CFI (cfiCond108) NoFunction
        CFI (cfiCond108) Conditional ??CrossCallReturnLabel_68, ??CrossCallReturnLabel_15
        CFI (cfiCond108) DPL0 Frame(CFA_SP, 4)
        CFI (cfiCond108) DPH0 Frame(CFA_SP, 5)
        CFI (cfiCond108) CFA_SP SP+-5
        CFI Block cfiCond109 Using cfiCommon0
        CFI (cfiCond109) NoFunction
        CFI (cfiCond109) Conditional ??CrossCallReturnLabel_68, ??CrossCallReturnLabel_16
        CFI (cfiCond109) DPL0 Frame(CFA_SP, 4)
        CFI (cfiCond109) DPH0 Frame(CFA_SP, 5)
        CFI (cfiCond109) CFA_SP SP+-5
        CFI Block cfiPicker110 Using cfiCommon1
        CFI (cfiPicker110) NoFunction
        CFI (cfiPicker110) Picker
        MOVX    @DPTR,A
        INC     DPTR
        MOVX    @DPTR,A
        MOV     DPTR,#Recdata_GPGGA_start
        MOVX    @DPTR,A
        INC     DPTR
        RET
        CFI EndBlock cfiCond107
        CFI EndBlock cfiCond108
        CFI EndBlock cfiCond109
        CFI EndBlock cfiPicker110

        RSEG BANKED_CODE:CODE:NOROOT(0)
?Subroutine5:
        CFI Block cfiCond111 Using cfiCommon0
        CFI NoFunction
        CFI Conditional ??CrossCallReturnLabel_13
        CFI DPL0 Frame(CFA_SP, 4)
        CFI DPH0 Frame(CFA_SP, 5)
        CFI CFA_SP SP+-5
        CFI Block cfiCond112 Using cfiCommon0
        CFI (cfiCond112) NoFunction
        CFI (cfiCond112) Conditional ??CrossCallReturnLabel_14
        CFI (cfiCond112) DPL0 Frame(CFA_SP, 4)
        CFI (cfiCond112) DPH0 Frame(CFA_SP, 5)
        CFI (cfiCond112) CFA_SP SP+-5
        CFI Block cfiPicker113 Using cfiCommon1
        CFI (cfiPicker113) NoFunction
        CFI (cfiPicker113) Picker
        LCALL   ?Subroutine24 & 0xFFFF
??CrossCallReturnLabel_66:
        CLR     A
        LCALL   ?Subroutine23 & 0xFFFF
??CrossCallReturnLabel_89:
        RET
        CFI EndBlock cfiCond111
        CFI EndBlock cfiCond112
        CFI EndBlock cfiPicker113

        RSEG BANKED_CODE:CODE:NOROOT(0)
?Subroutine23:
        CFI Block cfiCond114 Using cfiCommon0
        CFI NoFunction
        CFI Conditional ??CrossCallReturnLabel_89, ??CrossCallReturnLabel_13
        CFI DPL0 Frame(CFA_SP, 4)
        CFI DPH0 Frame(CFA_SP, 5)
        CFI CFA_SP SP+-5
        CFI Block cfiCond115 Using cfiCommon0
        CFI (cfiCond115) NoFunction
        CFI (cfiCond115) Conditional ??CrossCallReturnLabel_89, ??CrossCallReturnLabel_14
        CFI (cfiCond115) DPL0 Frame(CFA_SP, 4)
        CFI (cfiCond115) DPH0 Frame(CFA_SP, 5)
        CFI (cfiCond115) CFA_SP SP+-5
        CFI Block cfiCond116 Using cfiCommon0
        CFI (cfiCond116) NoFunction
        CFI (cfiCond116) Conditional ??CrossCallReturnLabel_90, ??CrossCallReturnLabel_86
        CFI (cfiCond116) DPL0 Frame(CFA_SP, 4)
        CFI (cfiCond116) DPH0 Frame(CFA_SP, 5)
        CFI (cfiCond116) CFA_SP SP+-5
        CFI Block cfiCond117 Using cfiCommon0
        CFI (cfiCond117) NoFunction
        CFI (cfiCond117) Conditional ??CrossCallReturnLabel_90, ??CrossCallReturnLabel_87
        CFI (cfiCond117) DPL0 Frame(CFA_SP, 4)
        CFI (cfiCond117) DPH0 Frame(CFA_SP, 5)
        CFI (cfiCond117) CFA_SP SP+-5
        CFI Block cfiCond118 Using cfiCommon0
        CFI (cfiCond118) NoFunction
        CFI (cfiCond118) Conditional ??CrossCallReturnLabel_90, ??CrossCallReturnLabel_88
        CFI (cfiCond118) DPL0 Frame(CFA_SP, 4)
        CFI (cfiCond118) DPH0 Frame(CFA_SP, 5)
        CFI (cfiCond118) CFA_SP SP+-5
        CFI Block cfiPicker119 Using cfiCommon1
        CFI (cfiPicker119) NoFunction
        CFI (cfiPicker119) Picker
        MOVX    @DPTR,A
        INC     DPTR
        MOVX    @DPTR,A
        MOV     DPTR,#Recdata_GPGSA_start
        MOVX    @DPTR,A
        INC     DPTR
        MOVX    @DPTR,A
        RET
        CFI EndBlock cfiCond114
        CFI EndBlock cfiCond115
        CFI EndBlock cfiCond116
        CFI EndBlock cfiCond117
        CFI EndBlock cfiCond118
        CFI EndBlock cfiPicker119

        RSEG BANKED_CODE:CODE:NOROOT(0)
?Subroutine4:
        CFI Block cfiCond120 Using cfiCommon0
        CFI NoFunction
        CFI Conditional ??CrossCallReturnLabel_10
        CFI DPL0 Frame(CFA_SP, 4)
        CFI DPH0 Frame(CFA_SP, 5)
        CFI CFA_SP SP+-5
        CFI Block cfiCond121 Using cfiCommon0
        CFI (cfiCond121) NoFunction
        CFI (cfiCond121) Conditional ??CrossCallReturnLabel_11
        CFI (cfiCond121) DPL0 Frame(CFA_SP, 4)
        CFI (cfiCond121) DPH0 Frame(CFA_SP, 5)
        CFI (cfiCond121) CFA_SP SP+-5
        CFI Block cfiCond122 Using cfiCommon0
        CFI (cfiCond122) NoFunction
        CFI (cfiCond122) Conditional ??CrossCallReturnLabel_12
        CFI (cfiCond122) DPL0 Frame(CFA_SP, 4)
        CFI (cfiCond122) DPH0 Frame(CFA_SP, 5)
        CFI (cfiCond122) CFA_SP SP+-5
        CFI Block cfiPicker123 Using cfiCommon1
        CFI (cfiPicker123) NoFunction
        CFI (cfiPicker123) Picker
        MOVX    @DPTR,A
        MOV     A,R2
        ADD     A,#0x1
        INC     R2
        MOV     A,R3
        ADDC    A,#0x0
        MOV     R3,A
        LCALL   ?Subroutine27 & 0xFFFF
??CrossCallReturnLabel_70:
        RET
        CFI EndBlock cfiCond120
        CFI EndBlock cfiCond121
        CFI EndBlock cfiCond122
        CFI EndBlock cfiPicker123

        RSEG BANKED_CODE:CODE:NOROOT(0)
?Subroutine27:
        CFI Block cfiCond124 Using cfiCommon0
        CFI NoFunction
        CFI Conditional ??CrossCallReturnLabel_71, ??CrossCallReturnLabel_57
        CFI DPL0 Frame(CFA_SP, 4)
        CFI DPH0 Frame(CFA_SP, 5)
        CFI CFA_SP SP+-5
        CFI Block cfiCond125 Using cfiCommon0
        CFI (cfiCond125) NoFunction
        CFI (cfiCond125) Conditional ??CrossCallReturnLabel_71, ??CrossCallReturnLabel_58
        CFI (cfiCond125) DPL0 Frame(CFA_SP, 4)
        CFI (cfiCond125) DPH0 Frame(CFA_SP, 5)
        CFI (cfiCond125) CFA_SP SP+-5
        CFI Block cfiCond126 Using cfiCommon0
        CFI (cfiCond126) NoFunction
        CFI (cfiCond126) Conditional ??CrossCallReturnLabel_70, ??CrossCallReturnLabel_10
        CFI (cfiCond126) DPL0 Frame(CFA_SP, 4)
        CFI (cfiCond126) DPH0 Frame(CFA_SP, 5)
        CFI (cfiCond126) CFA_SP SP+-5
        CFI Block cfiCond127 Using cfiCommon0
        CFI (cfiCond127) NoFunction
        CFI (cfiCond127) Conditional ??CrossCallReturnLabel_70, ??CrossCallReturnLabel_11
        CFI (cfiCond127) DPL0 Frame(CFA_SP, 4)
        CFI (cfiCond127) DPH0 Frame(CFA_SP, 5)
        CFI (cfiCond127) CFA_SP SP+-5
        CFI Block cfiCond128 Using cfiCommon0
        CFI (cfiCond128) NoFunction
        CFI (cfiCond128) Conditional ??CrossCallReturnLabel_70, ??CrossCallReturnLabel_12
        CFI (cfiCond128) DPL0 Frame(CFA_SP, 4)
        CFI (cfiCond128) DPH0 Frame(CFA_SP, 5)
        CFI (cfiCond128) CFA_SP SP+-5
        CFI Block cfiCond129 Using cfiCommon0
        CFI (cfiCond129) NoFunction
        CFI (cfiCond129) Conditional ??CrossCallReturnLabel_69, ??CrossCallReturnLabel_5
        CFI (cfiCond129) DPL0 Frame(CFA_SP, 4)
        CFI (cfiCond129) DPH0 Frame(CFA_SP, 5)
        CFI (cfiCond129) CFA_SP SP+-5
        CFI Block cfiCond130 Using cfiCommon0
        CFI (cfiCond130) NoFunction
        CFI (cfiCond130) Conditional ??CrossCallReturnLabel_69, ??CrossCallReturnLabel_6
        CFI (cfiCond130) DPL0 Frame(CFA_SP, 4)
        CFI (cfiCond130) DPH0 Frame(CFA_SP, 5)
        CFI (cfiCond130) CFA_SP SP+-5
        CFI Block cfiCond131 Using cfiCommon0
        CFI (cfiCond131) NoFunction
        CFI (cfiCond131) Conditional ??CrossCallReturnLabel_69, ??CrossCallReturnLabel_7
        CFI (cfiCond131) DPL0 Frame(CFA_SP, 4)
        CFI (cfiCond131) DPH0 Frame(CFA_SP, 5)
        CFI (cfiCond131) CFA_SP SP+-5
        CFI Block cfiCond132 Using cfiCommon0
        CFI (cfiCond132) NoFunction
        CFI (cfiCond132) Conditional ??CrossCallReturnLabel_69, ??CrossCallReturnLabel_8
        CFI (cfiCond132) DPL0 Frame(CFA_SP, 4)
        CFI (cfiCond132) DPH0 Frame(CFA_SP, 5)
        CFI (cfiCond132) CFA_SP SP+-5
        CFI Block cfiCond133 Using cfiCommon0
        CFI (cfiCond133) NoFunction
        CFI (cfiCond133) Conditional ??CrossCallReturnLabel_69, ??CrossCallReturnLabel_9
        CFI (cfiCond133) DPL0 Frame(CFA_SP, 4)
        CFI (cfiCond133) DPH0 Frame(CFA_SP, 5)
        CFI (cfiCond133) CFA_SP SP+-5
        CFI Block cfiPicker134 Using cfiCommon1
        CFI (cfiPicker134) NoFunction
        CFI (cfiPicker134) Picker
        MOV     A,R0
        ADD     A,#0x1
        INC     R0
        MOV     A,R1
        ADDC    A,#0x0
        MOV     R1,A
        RET
        CFI EndBlock cfiCond124
        CFI EndBlock cfiCond125
        CFI EndBlock cfiCond126
        CFI EndBlock cfiCond127
        CFI EndBlock cfiCond128
        CFI EndBlock cfiCond129
        CFI EndBlock cfiCond130
        CFI EndBlock cfiCond131
        CFI EndBlock cfiCond132
        CFI EndBlock cfiCond133
        CFI EndBlock cfiPicker134

        RSEG BANKED_CODE:CODE:NOROOT(0)
?Subroutine3:
        CFI Block cfiCond135 Using cfiCommon0
        CFI NoFunction
        CFI Conditional ??CrossCallReturnLabel_86
        CFI DPL0 Frame(CFA_SP, 4)
        CFI DPH0 Frame(CFA_SP, 5)
        CFI CFA_SP SP+-5
        CFI Block cfiCond136 Using cfiCommon0
        CFI (cfiCond136) NoFunction
        CFI (cfiCond136) Conditional ??CrossCallReturnLabel_87
        CFI (cfiCond136) DPL0 Frame(CFA_SP, 4)
        CFI (cfiCond136) DPH0 Frame(CFA_SP, 5)
        CFI (cfiCond136) CFA_SP SP+-5
        CFI Block cfiPicker137 Using cfiCommon1
        CFI (cfiPicker137) NoFunction
        CFI (cfiPicker137) Picker
        CLR     A
        CFI EndBlock cfiCond135
        CFI EndBlock cfiCond136
        CFI EndBlock cfiPicker137
        REQUIRE ??Subroutine32_0
        ; // Fall through to label ??Subroutine32_0

        RSEG BANKED_CODE:CODE:NOROOT(0)
??Subroutine32_0:
        CFI Block cfiCond138 Using cfiCommon0
        CFI NoFunction
        CFI Conditional ??CrossCallReturnLabel_88
        CFI DPL0 Frame(CFA_SP, 4)
        CFI DPH0 Frame(CFA_SP, 5)
        CFI CFA_SP SP+-5
        CFI Block cfiCond139 Using cfiCommon0
        CFI (cfiCond139) NoFunction
        CFI (cfiCond139) Conditional ??CrossCallReturnLabel_86
        CFI (cfiCond139) DPL0 Frame(CFA_SP, 4)
        CFI (cfiCond139) DPH0 Frame(CFA_SP, 5)
        CFI (cfiCond139) CFA_SP SP+-5
        CFI Block cfiCond140 Using cfiCommon0
        CFI (cfiCond140) NoFunction
        CFI (cfiCond140) Conditional ??CrossCallReturnLabel_87
        CFI (cfiCond140) DPL0 Frame(CFA_SP, 4)
        CFI (cfiCond140) DPH0 Frame(CFA_SP, 5)
        CFI (cfiCond140) CFA_SP SP+-5
        CFI Block cfiPicker141 Using cfiCommon1
        CFI (cfiPicker141) NoFunction
        CFI (cfiPicker141) Picker
        LCALL   ?Subroutine23 & 0xFFFF
??CrossCallReturnLabel_90:
        MOV     DPTR,#Recdata_GPRMC_start
        LCALL   ?Subroutine26 & 0xFFFF
??CrossCallReturnLabel_92:
        RET
        CFI EndBlock cfiCond138
        CFI EndBlock cfiCond139
        CFI EndBlock cfiCond140
        CFI EndBlock cfiPicker141

        RSEG BANKED_CODE:CODE:NOROOT(0)
?Subroutine26:
        CFI Block cfiCond142 Using cfiCommon0
        CFI NoFunction
        CFI Conditional ??CrossCallReturnLabel_91, ??CrossCallReturnLabel_19
        CFI DPL0 Frame(CFA_SP, 4)
        CFI DPH0 Frame(CFA_SP, 5)
        CFI CFA_SP SP+-5
        CFI Block cfiCond143 Using cfiCommon0
        CFI (cfiCond143) NoFunction
        CFI (cfiCond143) Conditional ??CrossCallReturnLabel_91, ??CrossCallReturnLabel_20
        CFI (cfiCond143) DPL0 Frame(CFA_SP, 4)
        CFI (cfiCond143) DPH0 Frame(CFA_SP, 5)
        CFI (cfiCond143) CFA_SP SP+-5
        CFI Block cfiCond144 Using cfiCommon0
        CFI (cfiCond144) NoFunction
        CFI (cfiCond144) Conditional ??CrossCallReturnLabel_92, ??CrossCallReturnLabel_86
        CFI (cfiCond144) DPL0 Frame(CFA_SP, 4)
        CFI (cfiCond144) DPH0 Frame(CFA_SP, 5)
        CFI (cfiCond144) CFA_SP SP+-5
        CFI Block cfiCond145 Using cfiCommon0
        CFI (cfiCond145) NoFunction
        CFI (cfiCond145) Conditional ??CrossCallReturnLabel_92, ??CrossCallReturnLabel_87
        CFI (cfiCond145) DPL0 Frame(CFA_SP, 4)
        CFI (cfiCond145) DPH0 Frame(CFA_SP, 5)
        CFI (cfiCond145) CFA_SP SP+-5
        CFI Block cfiCond146 Using cfiCommon0
        CFI (cfiCond146) NoFunction
        CFI (cfiCond146) Conditional ??CrossCallReturnLabel_92, ??CrossCallReturnLabel_88
        CFI (cfiCond146) DPL0 Frame(CFA_SP, 4)
        CFI (cfiCond146) DPH0 Frame(CFA_SP, 5)
        CFI (cfiCond146) CFA_SP SP+-5
        CFI Block cfiPicker147 Using cfiCommon1
        CFI (cfiPicker147) NoFunction
        CFI (cfiPicker147) Picker
        MOVX    @DPTR,A
        INC     DPTR
        MOVX    @DPTR,A
        MOV     DPTR,#Recdata_GPVTG_start
        MOVX    @DPTR,A
        INC     DPTR
        RET
        CFI EndBlock cfiCond142
        CFI EndBlock cfiCond143
        CFI EndBlock cfiCond144
        CFI EndBlock cfiCond145
        CFI EndBlock cfiCond146
        CFI EndBlock cfiPicker147

        RSEG BANKED_CODE:CODE:NOROOT(0)
?Subroutine2:
        CFI Block cfiCond148 Using cfiCommon0
        CFI NoFunction
        CFI Conditional ??CrossCallReturnLabel_5
        CFI DPL0 Frame(CFA_SP, 4)
        CFI DPH0 Frame(CFA_SP, 5)
        CFI CFA_SP SP+-5
        CFI Block cfiCond149 Using cfiCommon0
        CFI (cfiCond149) NoFunction
        CFI (cfiCond149) Conditional ??CrossCallReturnLabel_6
        CFI (cfiCond149) DPL0 Frame(CFA_SP, 4)
        CFI (cfiCond149) DPH0 Frame(CFA_SP, 5)
        CFI (cfiCond149) CFA_SP SP+-5
        CFI Block cfiCond150 Using cfiCommon0
        CFI (cfiCond150) NoFunction
        CFI (cfiCond150) Conditional ??CrossCallReturnLabel_7
        CFI (cfiCond150) DPL0 Frame(CFA_SP, 4)
        CFI (cfiCond150) DPH0 Frame(CFA_SP, 5)
        CFI (cfiCond150) CFA_SP SP+-5
        CFI Block cfiCond151 Using cfiCommon0
        CFI (cfiCond151) NoFunction
        CFI (cfiCond151) Conditional ??CrossCallReturnLabel_8
        CFI (cfiCond151) DPL0 Frame(CFA_SP, 4)
        CFI (cfiCond151) DPH0 Frame(CFA_SP, 5)
        CFI (cfiCond151) CFA_SP SP+-5
        CFI Block cfiCond152 Using cfiCommon0
        CFI (cfiCond152) NoFunction
        CFI (cfiCond152) Conditional ??CrossCallReturnLabel_9
        CFI (cfiCond152) DPL0 Frame(CFA_SP, 4)
        CFI (cfiCond152) DPH0 Frame(CFA_SP, 5)
        CFI (cfiCond152) CFA_SP SP+-5
        CFI Block cfiPicker153 Using cfiCommon1
        CFI (cfiPicker153) NoFunction
        CFI (cfiPicker153) Picker
        MOVX    @DPTR,A
        LCALL   ?Subroutine27 & 0xFFFF
??CrossCallReturnLabel_69:
        MOV     A,R2
        ADD     A,#0x1
        INC     R2
        MOV     A,R3
        ADDC    A,#0x0
        MOV     R3,A
        RET
        CFI EndBlock cfiCond148
        CFI EndBlock cfiCond149
        CFI EndBlock cfiCond150
        CFI EndBlock cfiCond151
        CFI EndBlock cfiCond152
        CFI EndBlock cfiPicker153

        RSEG BANKED_CODE:CODE:NOROOT(0)
?Subroutine1:
        CFI Block cfiCond154 Using cfiCommon0
        CFI NoFunction
        CFI Conditional ??CrossCallReturnLabel_0
        CFI DPL0 Frame(CFA_SP, 4)
        CFI DPH0 Frame(CFA_SP, 5)
        CFI CFA_SP SP+-5
        CFI Block cfiCond155 Using cfiCommon0
        CFI (cfiCond155) NoFunction
        CFI (cfiCond155) Conditional ??CrossCallReturnLabel_1
        CFI (cfiCond155) DPL0 Frame(CFA_SP, 4)
        CFI (cfiCond155) DPH0 Frame(CFA_SP, 5)
        CFI (cfiCond155) CFA_SP SP+-5
        CFI Block cfiCond156 Using cfiCommon0
        CFI (cfiCond156) NoFunction
        CFI (cfiCond156) Conditional ??CrossCallReturnLabel_2
        CFI (cfiCond156) DPL0 Frame(CFA_SP, 4)
        CFI (cfiCond156) DPH0 Frame(CFA_SP, 5)
        CFI (cfiCond156) CFA_SP SP+-5
        CFI Block cfiCond157 Using cfiCommon0
        CFI (cfiCond157) NoFunction
        CFI (cfiCond157) Conditional ??CrossCallReturnLabel_3
        CFI (cfiCond157) DPL0 Frame(CFA_SP, 4)
        CFI (cfiCond157) DPH0 Frame(CFA_SP, 5)
        CFI (cfiCond157) CFA_SP SP+-5
        CFI Block cfiCond158 Using cfiCommon0
        CFI (cfiCond158) NoFunction
        CFI (cfiCond158) Conditional ??CrossCallReturnLabel_4
        CFI (cfiCond158) DPL0 Frame(CFA_SP, 4)
        CFI (cfiCond158) DPH0 Frame(CFA_SP, 5)
        CFI (cfiCond158) CFA_SP SP+-5
        CFI Block cfiPicker159 Using cfiCommon1
        CFI (cfiPicker159) NoFunction
        CFI (cfiPicker159) Picker
        MOV     DPTR,#position
        MOVX    A,@DPTR
        MOV     R0,A
        INC     DPTR
        MOVX    A,@DPTR
        MOV     R1,A
        MOV     A,R0
        ADD     A,#0x1
        MOV     R2,A
        MOV     A,R1
        ADDC    A,#0x0
        MOV     R3,A
        MOV     DPTR,#position
        MOV     A,R2
        MOVX    @DPTR,A
        INC     DPTR
        MOV     A,R3
        MOVX    @DPTR,A
        MOV     A,#Recdata & 0xff
        ADD     A,R0
        MOV     DPL,A
        MOV     A,#(Recdata >> 8) & 0xff
        ADDC    A,R1
        MOV     DPH,A
        MOVX    A,@DPTR
        XRL     A,#0x24
        RET
        CFI EndBlock cfiCond154
        CFI EndBlock cfiCond155
        CFI EndBlock cfiCond156
        CFI EndBlock cfiCond157
        CFI EndBlock cfiCond158
        CFI EndBlock cfiPicker159

        RSEG BANKED_CODE:CODE:NOROOT(0)
//  532 void GpsMeasurement_Init( uint8 task_id )
GpsMeasurement_Init:
        CFI Block cfiBlock160 Using cfiCommon0
        CFI Function GpsMeasurement_Init
        CODE
//  533 {
        FUNCALL GpsMeasurement_Init, osal_start_timerEx
        LOCFRAME ISTACK, 0, STACK
        LOCFRAME PSTACK, 0, STACK
        LOCFRAME XSTACK, 9, STACK
        LOCFRAME IOVERLAY, 0, STATIC
        LOCFRAME DOVERLAY, 0, STATIC
        ARGFRAME ISTACK, 0, STACK
        ARGFRAME PSTACK, 0, STACK
        ARGFRAME XSTACK, 9, STACK
        ARGFRAME IOVERLAY, 0, STATIC
        ARGFRAME DOVERLAY, 0, STATIC
        FUNCALL GpsMeasurement_Init, RegisterForKeys
        LOCFRAME ISTACK, 0, STACK
        LOCFRAME PSTACK, 0, STACK
        LOCFRAME XSTACK, 9, STACK
        LOCFRAME IOVERLAY, 0, STATIC
        LOCFRAME DOVERLAY, 0, STATIC
        ARGFRAME ISTACK, 0, STACK
        ARGFRAME PSTACK, 0, STACK
        ARGFRAME XSTACK, 9, STACK
        ARGFRAME IOVERLAY, 0, STATIC
        ARGFRAME DOVERLAY, 0, STATIC
        MOV     A,#-0x9
        LCALL   ?BANKED_ENTER_XDATA
        CFI DPH0 load(1, XDATA, add(CFA_XSP16, literal(-1)))
        CFI DPL0 load(1, XDATA, add(CFA_XSP16, literal(-2)))
        CFI ?BRET_EXT load(1, XDATA, add(CFA_XSP16, literal(-3)))
        CFI ?RET_HIGH load(1, XDATA, add(CFA_XSP16, literal(-4)))
        CFI ?RET_LOW load(1, XDATA, add(CFA_XSP16, literal(-5)))
        CFI R7 load(1, XDATA, add(CFA_XSP16, literal(-6)))
        CFI V0 load(1, XDATA, add(CFA_XSP16, literal(-7)))
        CFI VB load(1, XDATA, add(CFA_XSP16, literal(-8)))
        CFI R6 load(1, XDATA, add(CFA_XSP16, literal(-9)))
        CFI CFA_SP SP+0
        CFI CFA_XSP16 add(XSP16, 9)
        ; Saved register size: 9
        ; Auto size: 0
        MOV     A,R1
//  534   Gps_Uart_TaskID = task_id;
        MOV     DPTR,#Gps_Uart_TaskID
        MOVX    @DPTR,A
//  535   Gps_Uart_TransID = 0;
        MOV     DPTR,#Gps_Uart_TransID
        CLR     A
        MOVX    @DPTR,A
//  536 
//  537 #if defined ( LCD_SUPPORTED )
//  538   //HalLcdWriteString( "TempHumApp", HAL_LCD_LINE_1 );
//  539 #endif
//  540   
//  541   osal_start_timerEx( Gps_Uart_TaskID,
//  542                         GPSMEASUREMENT_EVT,
//  543                         GPSMEASUREMENT_TIMEOUT );
        ; Setup parameters for call to function osal_start_timerEx
        MOV     R4,#-0x70
        MOV     R5,#0x1
        MOV     R2,#0x1
        MOV     R3,A
        LCALL   ??osal_start_timerEx?relay
//  544   
//  545   RegisterForKeys( Gps_Uart_TaskID );
        ; Setup parameters for call to function RegisterForKeys
        MOV     DPTR,#Gps_Uart_TaskID
        MOVX    A,@DPTR
        MOV     R1,A
        LCALL   ??RegisterForKeys?relay
//  546 }
        LJMP    ?Subroutine0 & 0xFFFF
        CFI EndBlock cfiBlock160

        RSEG BANKED_CODE:CODE:NOROOT(0)
//  547 uint16 GpsMeasurement_ProcessEvent( uint8 task_id, uint16 events )
GpsMeasurement_ProcessEvent:
        CFI Block cfiBlock161 Using cfiCommon0
        CFI Function GpsMeasurement_ProcessEvent
        CODE
//  548 {
        FUNCALL GpsMeasurement_ProcessEvent, HalUARTRead
        LOCFRAME ISTACK, 0, STACK
        LOCFRAME PSTACK, 0, STACK
        LOCFRAME XSTACK, 9, STACK
        LOCFRAME IOVERLAY, 0, STATIC
        LOCFRAME DOVERLAY, 0, STATIC
        ARGFRAME ISTACK, 0, STACK
        ARGFRAME PSTACK, 0, STACK
        ARGFRAME XSTACK, 9, STACK
        ARGFRAME IOVERLAY, 0, STATIC
        ARGFRAME DOVERLAY, 0, STATIC
        FUNCALL GpsMeasurement_ProcessEvent, handle
        LOCFRAME ISTACK, 0, STACK
        LOCFRAME PSTACK, 0, STACK
        LOCFRAME XSTACK, 9, STACK
        LOCFRAME IOVERLAY, 0, STATIC
        LOCFRAME DOVERLAY, 0, STATIC
        ARGFRAME ISTACK, 0, STACK
        ARGFRAME PSTACK, 0, STACK
        ARGFRAME XSTACK, 9, STACK
        ARGFRAME IOVERLAY, 0, STATIC
        ARGFRAME DOVERLAY, 0, STATIC
        FUNCALL GpsMeasurement_ProcessEvent, osal_start_timerEx
        LOCFRAME ISTACK, 0, STACK
        LOCFRAME PSTACK, 0, STACK
        LOCFRAME XSTACK, 9, STACK
        LOCFRAME IOVERLAY, 0, STATIC
        LOCFRAME DOVERLAY, 0, STATIC
        ARGFRAME ISTACK, 0, STACK
        ARGFRAME PSTACK, 0, STACK
        ARGFRAME XSTACK, 9, STACK
        ARGFRAME IOVERLAY, 0, STATIC
        ARGFRAME DOVERLAY, 0, STATIC
        MOV     A,#-0x9
        LCALL   ?BANKED_ENTER_XDATA
        CFI DPH0 load(1, XDATA, add(CFA_XSP16, literal(-1)))
        CFI DPL0 load(1, XDATA, add(CFA_XSP16, literal(-2)))
        CFI ?BRET_EXT load(1, XDATA, add(CFA_XSP16, literal(-3)))
        CFI ?RET_HIGH load(1, XDATA, add(CFA_XSP16, literal(-4)))
        CFI ?RET_LOW load(1, XDATA, add(CFA_XSP16, literal(-5)))
        CFI R7 load(1, XDATA, add(CFA_XSP16, literal(-6)))
        CFI V0 load(1, XDATA, add(CFA_XSP16, literal(-7)))
        CFI VB load(1, XDATA, add(CFA_XSP16, literal(-8)))
        CFI R6 load(1, XDATA, add(CFA_XSP16, literal(-9)))
        CFI CFA_SP SP+0
        CFI CFA_XSP16 add(XSP16, 9)
        ; Saved register size: 9
        ; Auto size: 0
        MOV     A,R2
        MOV     R6,A
        MOV     A,R3
        MOV     R7,A
//  549   if ( events & GPSMEASUREMENT_EVT )
        MOV     A,R6
        MOV     C,0xE0 /* A   */.0
        JNC     ??GpsMeasurement_ProcessEvent_0
//  550   {
//  551 
//  552   HalUARTRead(0, Recdata, 300);
        ; Setup parameters for call to function HalUARTRead
        MOV     R4,#0x2c
        MOV     R5,#0x1
        MOV     R2,#Recdata & 0xff
        MOV     R3,#(Recdata >> 8) & 0xff
        MOV     R1,#0x0
        LCALL   ??HalUARTRead?relay
//  553   handle();
        ; Setup parameters for call to function handle
        LCALL   ??handle?relay
//  554   osal_start_timerEx( Gps_Uart_TaskID,
//  555                         GPSMEASUREMENT_EVT,
//  556                         GPSMEASUREMENT_TIMEOUT );
        ; Setup parameters for call to function osal_start_timerEx
        MOV     R4,#-0x70
        MOV     R5,#0x1
        MOV     R2,#0x1
        MOV     R3,#0x0
        MOV     DPTR,#Gps_Uart_TaskID
        LCALL   ?Subroutine14 & 0xFFFF
//  557 
//  558 
//  559 #if defined ( LCD_SUPPORTED )
//  560   //HalLcdWriteStringValue("Temp: ", Temp, 10, HAL_LCD_LINE_3);
//  561   //HalLcdWriteStringValue("Hum:  ", Hum,  10, HAL_LCD_LINE_4);
//  562 #endif
//  563 
//  564     // return unprocessed events
//  565     return (events ^ GPSMEASUREMENT_EVT);
//  566   }
??CrossCallReturnLabel_44:
        MOV     R3,A
        SJMP    ??GpsMeasurement_ProcessEvent_1
//  567 
//  568   // Discard unknown events
//  569   return 0;
??GpsMeasurement_ProcessEvent_0:
        MOV     R2,#0x0
        MOV     R3,#0x0
??GpsMeasurement_ProcessEvent_1:
        LJMP    ?Subroutine0 & 0xFFFF
        CFI EndBlock cfiBlock161
//  570 }

        RSEG BANKED_CODE:CODE:NOROOT(0)
?Subroutine14:
        CFI Block cfiCond162 Using cfiCommon0
        CFI NoFunction
        CFI Conditional ??CrossCallReturnLabel_43
        CFI R6 load(1, XDATA, add(CFA_XSP16, literal(-12)))
        CFI VB load(1, XDATA, add(CFA_XSP16, literal(-11)))
        CFI V0 load(1, XDATA, add(CFA_XSP16, literal(-10)))
        CFI V1 load(1, XDATA, add(CFA_XSP16, literal(-9)))
        CFI V2 load(1, XDATA, add(CFA_XSP16, literal(-8)))
        CFI V3 load(1, XDATA, add(CFA_XSP16, literal(-7)))
        CFI R7 load(1, XDATA, add(CFA_XSP16, literal(-6)))
        CFI ?RET_LOW load(1, XDATA, add(CFA_XSP16, literal(-5)))
        CFI ?RET_HIGH load(1, XDATA, add(CFA_XSP16, literal(-4)))
        CFI ?BRET_EXT load(1, XDATA, add(CFA_XSP16, literal(-3)))
        CFI DPL0 load(1, XDATA, add(CFA_XSP16, literal(-2)))
        CFI DPH0 load(1, XDATA, add(CFA_XSP16, literal(-1)))
        CFI CFA_SP SP+0
        CFI CFA_XSP16 add(XSP16, 12)
        CFI Block cfiCond163 Using cfiCommon0
        CFI (cfiCond163) NoFunction
        CFI (cfiCond163) Conditional ??CrossCallReturnLabel_44
        CFI (cfiCond163) R6 load(1, XDATA, add(CFA_XSP16, literal(-9)))
        CFI (cfiCond163) VB load(1, XDATA, add(CFA_XSP16, literal(-8)))
        CFI (cfiCond163) V0 load(1, XDATA, add(CFA_XSP16, literal(-7)))
        CFI (cfiCond163) R7 load(1, XDATA, add(CFA_XSP16, literal(-6)))
        CFI (cfiCond163) ?RET_LOW load(1, XDATA, add(CFA_XSP16, literal(-5)))
        CFI (cfiCond163) ?RET_HIGH load(1, XDATA, add(CFA_XSP16, literal(-4)))
        CFI (cfiCond163) ?BRET_EXT load(1, XDATA, add(CFA_XSP16, literal(-3)))
        CFI (cfiCond163) DPL0 load(1, XDATA, add(CFA_XSP16, literal(-2)))
        CFI (cfiCond163) DPH0 load(1, XDATA, add(CFA_XSP16, literal(-1)))
        CFI (cfiCond163) CFA_SP SP+0
        CFI (cfiCond163) CFA_XSP16 add(XSP16, 9)
        CFI Block cfiPicker164 Using cfiCommon1
        CFI (cfiPicker164) NoFunction
        CFI (cfiPicker164) Picker
        MOVX    A,@DPTR
        MOV     R1,A
        LCALL   ??osal_start_timerEx?relay
        MOV     A,R6
        XRL     A,#0x1
        MOV     R2,A
        MOV     A,R7
        RET
        CFI EndBlock cfiCond162
        CFI EndBlock cfiCond163
        CFI EndBlock cfiPicker164

        RSEG XDATA_ID:CODE:NOROOT(0)
`?<Initializer for Recdata>`:
        DB "CHENGDU JIAJIE TECH.INC"
        DB 0, 0, 0, 0, 0, 0, 0, 0
        DB 0, 0, 0, 0, 0, 0, 0, 0
        DB 0, 0, 0, 0, 0, 0, 0, 0
        DB 0, 0, 0, 0, 0, 0, 0, 0
        DB 0, 0, 0, 0, 0, 0, 0, 0
        DB 0, 0, 0, 0, 0, 0, 0, 0
        DB 0, 0, 0, 0, 0, 0, 0, 0
        DB 0, 0, 0, 0, 0, 0, 0, 0
        DB 0, 0, 0, 0, 0, 0, 0, 0
        DB 0, 0, 0, 0, 0, 0, 0, 0
        DB 0, 0, 0, 0, 0, 0, 0, 0
        DB 0, 0, 0, 0, 0, 0, 0, 0
        DB 0, 0, 0, 0, 0, 0, 0, 0
        DB 0, 0, 0, 0, 0, 0, 0, 0
        DB 0, 0, 0, 0, 0, 0, 0, 0
        DB 0, 0, 0, 0, 0, 0, 0, 0
        DB 0, 0, 0, 0, 0, 0, 0, 0
        DB 0, 0, 0, 0, 0, 0, 0, 0
        DB 0, 0, 0, 0, 0, 0, 0, 0
        DB 0, 0, 0, 0, 0, 0, 0, 0
        DB 0, 0, 0, 0, 0, 0, 0, 0
        DB 0, 0, 0, 0, 0, 0, 0, 0
        DB 0, 0, 0, 0, 0, 0, 0, 0
        DB 0, 0, 0, 0, 0, 0, 0, 0
        DB 0, 0, 0, 0, 0, 0, 0, 0
        DB 0, 0, 0, 0, 0, 0, 0, 0
        DB 0, 0, 0, 0, 0, 0, 0, 0
        DB 0, 0, 0, 0, 0, 0, 0, 0
        DB 0, 0, 0, 0, 0, 0, 0, 0
        DB 0, 0, 0, 0, 0, 0, 0, 0
        DB 0, 0, 0, 0, 0, 0, 0, 0
        DB 0, 0, 0, 0, 0, 0, 0, 0
        DB 0, 0, 0, 0, 0, 0, 0, 0
        DB 0, 0, 0, 0, 0, 0, 0, 0
        DB 0, 0, 0, 0

        RSEG XDATA_ID:CODE:NOROOT(0)
`?<Initializer for Recdata_GPGGA>`:
        DB "CHENGDU JIAJIE TECH.INC"
        DB 0, 0, 0, 0, 0, 0, 0, 0
        DB 0, 0, 0, 0, 0, 0, 0, 0
        DB 0, 0, 0, 0, 0, 0, 0, 0
        DB 0, 0, 0, 0, 0, 0, 0, 0
        DB 0, 0, 0, 0, 0, 0, 0, 0
        DB 0, 0, 0, 0, 0, 0

        RSEG XDATA_ID:CODE:NOROOT(0)
`?<Initializer for Recdata_GPGSV>`:
        DB "CHENGDU JIAJIE TECH.INC"
        DB 0, 0, 0, 0, 0, 0, 0, 0
        DB 0, 0, 0, 0, 0, 0, 0, 0
        DB 0, 0, 0, 0, 0, 0, 0, 0
        DB 0, 0, 0, 0, 0, 0, 0, 0
        DB 0, 0, 0, 0, 0, 0, 0, 0
        DB 0, 0, 0, 0, 0, 0

        RSEG XDATA_ID:CODE:NOROOT(0)
`?<Initializer for Recdata_GPGSA>`:
        DB "CHENGDU JIAJIE TECH.INC"
        DB 0, 0, 0, 0, 0, 0, 0, 0
        DB 0, 0, 0, 0, 0, 0, 0, 0
        DB 0, 0, 0, 0, 0, 0, 0, 0
        DB 0, 0, 0, 0, 0, 0, 0, 0
        DB 0, 0, 0, 0, 0, 0, 0, 0
        DB 0, 0, 0, 0, 0, 0

        RSEG XDATA_ID:CODE:NOROOT(0)
`?<Initializer for Recdata_GPRMC>`:
        DB "CHENGDU JIAJIE TECH.INC"
        DB 0, 0, 0, 0, 0, 0, 0, 0
        DB 0, 0, 0, 0, 0, 0, 0, 0
        DB 0, 0, 0, 0, 0, 0, 0, 0
        DB 0, 0, 0, 0, 0, 0, 0, 0
        DB 0, 0, 0, 0, 0, 0, 0, 0
        DB 0, 0, 0, 0, 0, 0

        RSEG XDATA_ID:CODE:NOROOT(0)
`?<Initializer for Recdata_GPVTG>`:
        DB "CHENGDU JIAJIE TECH.INC"
        DB 0, 0, 0, 0, 0, 0, 0, 0
        DB 0, 0, 0, 0, 0, 0, 0, 0
        DB 0, 0, 0, 0, 0, 0, 0, 0
        DB 0, 0, 0, 0, 0, 0, 0, 0
        DB 0, 0, 0, 0, 0, 0, 0, 0
        DB 0, 0, 0, 0, 0, 0

        RSEG XDATA_ID:CODE:NOROOT(0)
`?<Initializer for UTC>`:
        DB 30H, 30H, 30H, 30H, 30H, 30H

        RSEG XDATA_ID:CODE:NOROOT(0)
`?<Initializer for JingDu>`:
        DB 30H, 30H, 30H, 30H, 30H, 30H, 30H, 30H
        DB 30H, 30H

        RSEG XDATA_ID:CODE:NOROOT(0)
`?<Initializer for WeiDu>`:
        DB 30H, 30H, 30H, 30H, 30H, 30H, 30H, 30H
        DB 30H

        RSEG XDATA_ID:CODE:NOROOT(0)
`?<Initializer for GaoDu>`:
        DB 30H, 30H, 30H, 30H, 30H

        RSEG XDATA_ID:CODE:NOROOT(0)
`?<Initializer for WeiXing>`:
        DB 30H, 30H

        RSEG XDATA_ID:CODE:NOROOT(0)
`?<Initializer for JiBie>`:
        DB 79H

        RSEG XDATA_ID:CODE:NOROOT(0)
`?<Initializer for RXTXflag>`:
        DATA8
        DB 1

        RSEG XDATA_ID:CODE:NOROOT(0)
`?<Initializer for position>`:
        DATA16
        DW 6

        RSEG XDATA_ID:CODE:NOROOT(0)
`?<Initializer for flag>`:
        DATA8
        DB 48

        RSEG BANK_RELAYS:CODE:REORDER:NOROOT(0)
??Gps_Init?relay:
        LCALL   ?BDISPATCH
        DATA
        DC24    Gps_Init

        RSEG BANK_RELAYS:CODE:REORDER:NOROOT(0)
??Gps_ProcessEvent?relay:
        LCALL   ?BDISPATCH
        DATA
        DC24    Gps_ProcessEvent

        RSEG BANK_RELAYS:CODE:REORDER:NOROOT(0)
??Gps_SendTheMessage?relay:
        LCALL   ?BDISPATCH
        DATA
        DC24    Gps_SendTheMessage

        RSEG BANK_RELAYS:CODE:REORDER:NOROOT(0)
??isDigital?relay:
        LCALL   ?BDISPATCH
        DATA
        DC24    isDigital

        RSEG BANK_RELAYS:CODE:REORDER:NOROOT(0)
??handle?relay:
        LCALL   ?BDISPATCH
        DATA
        DC24    handle

        RSEG BANK_RELAYS:CODE:REORDER:NOROOT(0)
??GpsMeasurement_Init?relay:
        LCALL   ?BDISPATCH
        DATA
        DC24    GpsMeasurement_Init

        RSEG BANK_RELAYS:CODE:REORDER:NOROOT(0)
??GpsMeasurement_ProcessEvent?relay:
        LCALL   ?BDISPATCH
        DATA
        DC24    GpsMeasurement_ProcessEvent

        RSEG XDATA_ROM_C:CONST:REORDER:NOROOT(0)
        DATA8
`?<Constant "Gps:">`:
        DB "Gps:"
        DB 0, 0, 0, 0, 0, 0, 0, 0
        DB 0, 0, 0, 0, 0, 0, 0, 0
        DB 0, 0, 0, 0, 0, 0, 0, 0
        DB 0, 0, 0, 0

        END
// 
// 1 951 bytes in segment BANKED_CODE
//    42 bytes in segment BANK_RELAYS
//     1 byte  in segment SFR_AN
//   687 bytes in segment XDATA_I
//   687 bytes in segment XDATA_ID
//    47 bytes in segment XDATA_ROM_C
//    29 bytes in segment XDATA_Z
// 
// 2 680 bytes of CODE  memory
//    47 bytes of CONST memory
//     0 bytes of DATA  memory (+ 1 byte shared)
//   716 bytes of XDATA memory
//
//Errors: none
//Warnings: none
