###############################################################################
#                                                                             #
# IAR C/C++ Compiler V8.10.3.10338/W32 for 8051         10/Jul/2017  15:44:33 #
# Copyright 2004-2011 IAR Systems AB.                                         #
#                                                                             #
#    Core               =  plain                                              #
#    Code model         =  banked                                             #
#    Data model         =  large                                              #
#    Calling convention =  xdata reentrant                                    #
#    Constant location  =  data_rom                                           #
#    Dptr setup         =  1,16                                               #
#    Source file        =  F:\代码\代码\ZStack-CC2530-2.5.1a\ZStack-CC2530-2. #
#                          5.1a\Projects\zstack\Samples\03烟雾\Source\GAS.c   #
#    Command line       =  -f F:\代码\代码\ZStack-CC2530-2.5.1a\ZStack-CC2530 #
#                          -2.5.1a\Projects\zstack\Samples\03烟雾\CC2530DB\.. #
#                          \..\..\Tools\CC2530DB\f8wEndev.cfg (-DCPU32MHZ     #
#                          -DROOT=__near_func -DMAC_CFG_TX_DATA_MAX=3         #
#                          -DMAC_CFG_TX_MAX=6 -DMAC_CFG_RX_MAX=3) -f          #
#                          F:\代码\代码\ZStack-CC2530-2.5.1a\ZStack-CC2530-2. #
#                          5.1a\Projects\zstack\Samples\03烟雾\CC2530DB\..\.. #
#                          \..\Tools\CC2530DB\f8wConfig.cfg (-DZIGBEEPRO      #
#                          -DSECURE=0 -DZG_SECURE_DYNAMIC=0 -DREFLECTOR       #
#                          -DDEFAULT_CHANLIST=0x00004000                      #
#                          -DZDAPP_CONFIG_PAN_ID=0xFFFF                       #
#                          -DNWK_START_DELAY=100 -DEXTENDED_JOINING_RANDOM_MA #
#                          SK=0x007F -DBEACON_REQUEST_DELAY=100               #
#                          -DBEACON_REQ_DELAY_MASK=0x00FF                     #
#                          -DLINK_STATUS_JITTER_MASK=0x007F                   #
#                          -DROUTE_EXPIRY_TIME=30 -DAPSC_ACK_WAIT_DURATION_PO #
#                          LLED=3000 -DNWK_INDIRECT_MSG_TIMEOUT=7             #
#                          -DMAX_RREQ_ENTRIES=8 -DAPSC_MAX_FRAME_RETRIES=3    #
#                          -DNWK_MAX_DATA_RETRIES=2                           #
#                          -DMAX_POLL_FAILURE_RETRIES=2 -DMAX_BCAST=9         #
#                          -DAPS_MAX_GROUPS=16 -DMAX_RTG_ENTRIES=40           #
#                          -DNWK_MAX_BINDING_ENTRIES=4                        #
#                          -DMAX_BINDING_CLUSTER_IDS=4 "-DDEFAULT_KEY={0x01,  #
#                          0x03, 0x05, 0x07, 0x09, 0x0B, 0x0D, 0x0F, 0x00,    #
#                          0x02, 0x04, 0x06, 0x08, 0x0A, 0x0C, 0x0D}"         #
#                          -DMAC_MAX_FRAME_SIZE=116                           #
#                          -DZDNWKMGR_MIN_TRANSMISSIONS=20 "-DCONST=const     #
#                          __code" -DGENERIC=__generic                        #
#                          -DRFD_RCVC_ALWAYS_ON=FALSE -DPOLL_RATE=1000        #
#                          -DQUEUED_POLL_RATE=100 -DRESPONSE_POLL_RATE=100)   #
#                          -DREJOIN_POLL_RATE=440 F:\代码\代码\ZStack-CC2530- #
#                          2.5.1a\ZStack-CC2530-2.5.1a\Projects\zstack\Sample #
#                          s\03烟雾\Source\GAS.c -D NWK_AUTO_POLL -D          #
#                          ZTOOL_P1 -D MT_TASK -D MT_SYS_FUNC -D MT_ZDO_FUNC  #
#                          -D LCD_SUPPORTED=DEBUG -D xPOWER_SAVING -lC        #
#                          F:\代码\代码\ZStack-CC2530-2.5.1a\ZStack-CC2530-2. #
#                          5.1a\Projects\zstack\Samples\03烟雾\CC2530DB\EndDe #
#                          viceEB\List\ -lA F:\代码\代码\ZStack-CC2530-2.5.1a #
#                          \ZStack-CC2530-2.5.1a\Projects\zstack\Samples\03烟 #
#                          雾\CC2530DB\EndDeviceEB\List\ --diag_suppress      #
#                          Pe001,Pa010 -o F:\代码\代码\ZStack-CC2530-2.5.1a\Z #
#                          Stack-CC2530-2.5.1a\Projects\zstack\Samples\03烟雾 #
#                          \CC2530DB\EndDeviceEB\Obj\ -e --no_code_motion     #
#                          --debug --core=plain --dptr=16,1                   #
#                          --data_model=large --code_model=banked             #
#                          --calling_convention=xdata_reentrant               #
#                          --place_constants=data_rom --nr_virtual_regs 16    #
#                          -I F:\代码\代码\ZStack-CC2530-2.5.1a\ZStack-CC2530 #
#                          -2.5.1a\Projects\zstack\Samples\03烟雾\CC2530DB\   #
#                          -I F:\代码\代码\ZStack-CC2530-2.5.1a\ZStack-CC2530 #
#                          -2.5.1a\Projects\zstack\Samples\03烟雾\CC2530DB\.. #
#                          \Source\ -I F:\代码\代码\ZStack-CC2530-2.5.1a\ZSta #
#                          ck-CC2530-2.5.1a\Projects\zstack\Samples\03烟雾\CC #
#                          2530DB\..\..\..\ZMain\TI2530DB\ -I                 #
#                          F:\代码\代码\ZStack-CC2530-2.5.1a\ZStack-CC2530-2. #
#                          5.1a\Projects\zstack\Samples\03烟雾\CC2530DB\..\.. #
#                          \..\..\..\Components\hal\include\ -I               #
#                          F:\代码\代码\ZStack-CC2530-2.5.1a\ZStack-CC2530-2. #
#                          5.1a\Projects\zstack\Samples\03烟雾\CC2530DB\..\.. #
#                          \..\..\..\Components\hal\target\CC2530EB\ -I       #
#                          F:\代码\代码\ZStack-CC2530-2.5.1a\ZStack-CC2530-2. #
#                          5.1a\Projects\zstack\Samples\03烟雾\CC2530DB\..\.. #
#                          \..\..\..\Components\mac\include\ -I               #
#                          F:\代码\代码\ZStack-CC2530-2.5.1a\ZStack-CC2530-2. #
#                          5.1a\Projects\zstack\Samples\03烟雾\CC2530DB\..\.. #
#                          \..\..\..\Components\mac\high_level\ -I            #
#                          F:\代码\代码\ZStack-CC2530-2.5.1a\ZStack-CC2530-2. #
#                          5.1a\Projects\zstack\Samples\03烟雾\CC2530DB\..\.. #
#                          \..\..\..\Components\mac\low_level\srf04\ -I       #
#                          F:\代码\代码\ZStack-CC2530-2.5.1a\ZStack-CC2530-2. #
#                          5.1a\Projects\zstack\Samples\03烟雾\CC2530DB\..\.. #
#                          \..\..\..\Components\mac\low_level\srf04\single_ch #
#                          ip\ -I F:\代码\代码\ZStack-CC2530-2.5.1a\ZStack-CC #
#                          2530-2.5.1a\Projects\zstack\Samples\03烟雾\CC2530D #
#                          B\..\..\..\..\..\Components\mt\ -I                 #
#                          F:\代码\代码\ZStack-CC2530-2.5.1a\ZStack-CC2530-2. #
#                          5.1a\Projects\zstack\Samples\03烟雾\CC2530DB\..\.. #
#                          \..\..\..\Components\osal\include\ -I              #
#                          F:\代码\代码\ZStack-CC2530-2.5.1a\ZStack-CC2530-2. #
#                          5.1a\Projects\zstack\Samples\03烟雾\CC2530DB\..\.. #
#                          \..\..\..\Components\services\saddr\ -I            #
#                          F:\代码\代码\ZStack-CC2530-2.5.1a\ZStack-CC2530-2. #
#                          5.1a\Projects\zstack\Samples\03烟雾\CC2530DB\..\.. #
#                          \..\..\..\Components\services\sdata\ -I            #
#                          F:\代码\代码\ZStack-CC2530-2.5.1a\ZStack-CC2530-2. #
#                          5.1a\Projects\zstack\Samples\03烟雾\CC2530DB\..\.. #
#                          \..\..\..\Components\stack\af\ -I                  #
#                          F:\代码\代码\ZStack-CC2530-2.5.1a\ZStack-CC2530-2. #
#                          5.1a\Projects\zstack\Samples\03烟雾\CC2530DB\..\.. #
#                          \..\..\..\Components\stack\nwk\ -I                 #
#                          F:\代码\代码\ZStack-CC2530-2.5.1a\ZStack-CC2530-2. #
#                          5.1a\Projects\zstack\Samples\03烟雾\CC2530DB\..\.. #
#                          \..\..\..\Components\stack\sapi\ -I                #
#                          F:\代码\代码\ZStack-CC2530-2.5.1a\ZStack-CC2530-2. #
#                          5.1a\Projects\zstack\Samples\03烟雾\CC2530DB\..\.. #
#                          \..\..\..\Components\stack\sec\ -I                 #
#                          F:\代码\代码\ZStack-CC2530-2.5.1a\ZStack-CC2530-2. #
#                          5.1a\Projects\zstack\Samples\03烟雾\CC2530DB\..\.. #
#                          \..\..\..\Components\stack\sys\ -I                 #
#                          F:\代码\代码\ZStack-CC2530-2.5.1a\ZStack-CC2530-2. #
#                          5.1a\Projects\zstack\Samples\03烟雾\CC2530DB\..\.. #
#                          \..\..\..\Components\stack\zdo\ -I                 #
#                          F:\代码\代码\ZStack-CC2530-2.5.1a\ZStack-CC2530-2. #
#                          5.1a\Projects\zstack\Samples\03烟雾\CC2530DB\..\.. #
#                          \..\..\..\Components\zmac\ -I                      #
#                          F:\代码\代码\ZStack-CC2530-2.5.1a\ZStack-CC2530-2. #
#                          5.1a\Projects\zstack\Samples\03烟雾\CC2530DB\..\.. #
#                          \..\..\..\Components\zmac\f8w\ -Ohz                #
#    List file          =  F:\代码\代码\ZStack-CC2530-2.5.1a\ZStack-CC2530-2. #
#                          5.1a\Projects\zstack\Samples\03烟雾\CC2530DB\EndDe #
#                          viceEB\List\GAS.lst                                #
#    Object file        =  F:\代码\代码\ZStack-CC2530-2.5.1a\ZStack-CC2530-2. #
#                          5.1a\Projects\zstack\Samples\03烟雾\CC2530DB\EndDe #
#                          viceEB\Obj\GAS.r51                                 #
#                                                                             #
#                                                                             #
###############################################################################

F:\代码\代码\ZStack-CC2530-2.5.1a\ZStack-CC2530-2.5.1a\Projects\zstack\Samples\03烟雾\Source\GAS.c
      1          /******************************************************************************
      2            Filename:       GAS.c
      3            Revised:        $Date: 2012-03-07 01:04:58 -0800 (Wed, 07 Mar 2012) $
      4            Revision:       $Revision: 29656 $
      5          
      6            Description:    Generic Application (no Profile).
      7          
      8          
      9            Copyright 2004-2012 Texas Instruments Incorporated. All rights reserved.
     10          
     11            IMPORTANT: Your use of this Software is limited to those specific rights
     12            granted under the terms of a software license agreement between the user
     13            who downloaded the software, his/her employer (which must be your employer)
     14            and Texas Instruments Incorporated (the "License"). You may not use this
     15            Software unless you agree to abide by the terms of the License. The License
     16            limits your use, and you acknowledge, that the Software may not be modified,
     17            copied or distributed unless embedded on a Texas Instruments microcontroller
     18            or used solely and exclusively in conjunction with a Texas Instruments radio
     19            frequency transceiver, which is integrated into your product. Other than for
     20            the foregoing purpose, you may not use, reproduce, copy, prepare derivative
     21            works of, modify, distribute, perform, display or sell this Software and/or
     22            its documentation for any purpose.
     23          
     24            YOU FURTHER ACKNOWLEDGE AND AGREE THAT THE SOFTWARE AND DOCUMENTATION ARE
     25            PROVIDED AS IS?WITHOUT WARRANTY OF ANY KIND, EITHER EXPRESS OR IMPLIED,
     26            INCLUDING WITHOUT LIMITATION, ANY WARRANTY OF MERCHANTABILITY, TITLE,
     27            NON-INFRINGEMENT AND FITNESS FOR A PARTICULAR PURPOSE. IN NO EVENT SHALL
     28            TEXAS INSTRUMENTS OR ITS LICENSORS BE LIABLE OR OBLIGATED UNDER CONTRACT,
     29            NEGLIGENCE, STRICT LIABILITY, CONTRIBUTION, BREACH OF WARRANTY, OR OTHER
     30            LEGAL EQUITABLE THEORY ANY DIRECT OR INDIRECT DAMAGES OR EXPENSES
     31            INCLUDING BUT NOT LIMITED TO ANY INCIDENTAL, SPECIAL, INDIRECT, PUNITIVE
     32            OR CONSEQUENTIAL DAMAGES, LOST PROFITS OR LOST DATA, COST OF PROCUREMENT
     33            OF SUBSTITUTE GOODS, TECHNOLOGY, SERVICES, OR ANY CLAIMS BY THIRD PARTIES
     34            (INCLUDING BUT NOT LIMITED TO ANY DEFENSE THEREOF), OR OTHER SIMILAR COSTS.
     35          
     36            Should you have any questions regarding your right to use this Software,
     37            contact Texas Instruments Incorporated at www.TI.com.
     38          ******************************************************************************/
     39          
     40          /*********************************************************************
     41            This application isn't intended to do anything useful, it is
     42            intended to be a simple example of an application's structure.
     43          
     44            This application sends "Hello World" to another "Generic"
     45            application every 5 seconds.  The application will also
     46            receives "Hello World" packets.
     47          
     48            The "Hello World" messages are sent/received as MSG type message.
     49          
     50            This applications doesn't have a profile, so it handles everything
     51            directly - itself.
     52          
     53            Key control:
     54              SW1:
     55              SW2:  initiates end device binding
     56              SW3:
     57              SW4:  initiates a match description request
     58          *********************************************************************/
     59          
     60          /*********************************************************************
     61           * INCLUDES
     62           */
     63          #include "OSAL.h"
     64          #include "AF.h"
     65          #include "ZDApp.h"
     66          #include "ZDObject.h"
     67          #include "ZDProfile.h"
     68          #include <string.h>
     69          //#include "Common.h"
     70          #include "DebugTrace.h"
     71          #include "GAS.h"
     72          #include "MT.h"
     73          
     74          #if !defined( WIN32 )
     75            #include "OnBoard.h"

   \                                 In  segment SFR_AN, at 0x90
   \   union <unnamed> volatile __sfr _A_P1
   \                     _A_P1:
   \   000000                DS 1

   \                                 In  segment SFR_AN, at 0xf4
   \   unsigned char volatile __sfr P1SEL
   \                     P1SEL:
   \   000000                DS 1

   \                                 In  segment SFR_AN, at 0xfe
   \   unsigned char volatile __sfr P1DIR
   \                     P1DIR:
   \   000000                DS 1
     76          #endif
     77          
     78          /* HAL */
     79          #include "hal_lcd.h"
     80          #include "hal_led.h"
     81          #include "hal_key.h"
     82          #include "hal_uart.h"
     83          #include "mt_uart.h"
     84          
     85          /*********************************************************************
     86           * MACROS
     87           */
     88          
     89          /*********************************************************************
     90           * CONSTANTS
     91           */
     92          
     93          /*********************************************************************
     94           * TYPEDEFS
     95           */
     96          
     97          /*********************************************************************
     98           * GLOBAL VARIABLES
     99           */
    100          // This list should be filled with Application specific Cluster IDs.
    101          #define SEND_DATA_EVENT 0x01

   \                                 In  segment XDATA_I, align 1, keep-with-next
    102          unsigned char flag='0';
   \                     flag:
   \   000000                DS 1
   \   000001                REQUIRE `?<Initializer for flag>`
   \   000001                REQUIRE __INIT_XDATA_I

   \                                 In  segment XDATA_ROM_C, align 1
    103          const cId_t GAS_ClusterList[GAS_MAX_CLUSTERS] =
   \                     GAS_ClusterList:
   \   000000   0200         DW 2
    104          {
    105            GAS_CLUSTERID
    106          };
    107          
    108          
    109          

   \                                 In  segment XDATA_ROM_C, align 1
    110          const SimpleDescriptionFormat_t GAS_SimpleDesc =
   \                     GAS_SimpleDesc:
   \   000000   0A           DB 10
   \   000001   040F         DW 3844
   \   000003   0100         DW 1
   \   000005   00           DB 0
   \   000006   00           DB 0
   \   000007   0000         DW 0H
   \   000009   01           DB 1
   \   00000A   ....         DW GAS_ClusterList
    111          {
    112            GAS_ENDPOINT,              //  int Endpoint;
    113            GAS_PROFID,                //  uint16 AppProfId[2];
    114            GAS_DEVICEID,              //  uint16 AppDeviceId[2];
    115            GAS_DEVICE_VERSION,        //  int   AppDevVer:4;
    116            GAS_FLAGS,                 //  int   AppFlags:4;
    117            
    118            
    119            0,          //  byte  AppNumInClusters;
    120            (cId_t *)NULL,  //  byte *pAppInClusterList;
    121            GAS_MAX_CLUSTERS,          //  byte  AppNumInClusters;
    122            (cId_t *)GAS_ClusterList   //  byte *pAppInClusterList;
    123          };
    124          

   \                                 In  segment XDATA_Z, align 1, keep-with-next
    125          unsigned char TempDATA;
   \                     TempDATA:
   \   000000                DS 1
   \   000001                REQUIRE __INIT_XDATA_Z

   \                                 In  segment XDATA_Z, align 1, keep-with-next
    126          endPointDesc_t GAS_epDesc;
   \                     GAS_epDesc:
   \   000000                DS 6
   \   000006                REQUIRE __INIT_XDATA_Z

   \                                 In  segment XDATA_Z, align 1, keep-with-next
    127          byte GAS_TaskID;
   \                     GAS_TaskID:
   \   000000                DS 1
   \   000001                REQUIRE __INIT_XDATA_Z

   \                                 In  segment XDATA_Z, align 1, keep-with-next
    128          byte GAS_TransID;
   \                     GAS_TransID:
   \   000000                DS 1
   \   000001                REQUIRE __INIT_XDATA_Z

   \                                 In  segment XDATA_Z, align 1, keep-with-next
    129          devStates_t GAS_NwkState;
   \                     GAS_NwkState:
   \   000000                DS 1
   \   000001                REQUIRE __INIT_XDATA_Z
    130          void GAS_MessageMSGCB(afIncomingMSGPacket_t *MSGpkt);
    131          void GAS_SendTheMessage(void);
    132          
    133          

   \                                 In  segment BANKED_CODE, align 1, keep-with-next
    134          void Scan()
   \                     Scan:
    135          {
   \   000000                ; Saved register size: 0
   \   000000                ; Auto size: 0
    136            P1SEL &= ~0x08;
   \   000000   53F4F7       ANL     0xf4,#0xf7
    137            P1DIR &= ~0x08;
   \   000003   53FEF7       ANL     0xfe,#0xf7
    138          }
   \   000006   02....       LJMP    ?BRET
   \   000009                REQUIRE P1SEL
   \   000009                REQUIRE P1DIR

   \                                 In  segment BANKED_CODE, align 1, keep-with-next
    139          void GAS_Init( byte task_id )
   \                     GAS_Init:
    140          {
   \   000000   74F7         MOV     A,#-0x9
   \   000002   12....       LCALL   ?BANKED_ENTER_XDATA
   \   000005                ; Saved register size: 9
   \   000005                ; Auto size: 0
   \   000005   E9           MOV     A,R1
    141            halUARTCfg_t uartConfig;//串口
    142              
    143            GAS_TaskID = task_id;
   \   000006   90....       MOV     DPTR,#GAS_TaskID
   \   000009   F0           MOVX    @DPTR,A
    144            GAS_NwkState=DEV_INIT;
   \   00000A   90....       MOV     DPTR,#GAS_NwkState
   \   00000D   7401         MOV     A,#0x1
   \   00000F   F0           MOVX    @DPTR,A
    145            GAS_TransID = 0;
   \   000010   90....       MOV     DPTR,#GAS_TransID
   \   000013   E4           CLR     A
   \   000014   F0           MOVX    @DPTR,A
    146          
    147            
    148            GAS_epDesc.endPoint = GAS_ENDPOINT;
   \   000015   90....       MOV     DPTR,#GAS_epDesc
   \   000018   740A         MOV     A,#0xa
   \   00001A   F0           MOVX    @DPTR,A
    149            GAS_epDesc.task_id = &GAS_TaskID;
   \   00001B   A3           INC     DPTR
   \   00001C   74..         MOV     A,#GAS_TaskID & 0xff
   \   00001E   F0           MOVX    @DPTR,A
   \   00001F   A3           INC     DPTR
   \   000020   74..         MOV     A,#(GAS_TaskID >> 8) & 0xff
   \   000022   F0           MOVX    @DPTR,A
    150            GAS_epDesc.simpleDesc
    151                      = (SimpleDescriptionFormat_t *)&GAS_SimpleDesc;
   \   000023   A3           INC     DPTR
   \   000024   74..         MOV     A,#GAS_SimpleDesc & 0xff
   \   000026   F0           MOVX    @DPTR,A
   \   000027   A3           INC     DPTR
   \   000028   74..         MOV     A,#(GAS_SimpleDesc >> 8) & 0xff
   \   00002A   F0           MOVX    @DPTR,A
    152            
    153            GAS_epDesc.latencyReq = noLatencyReqs;
   \   00002B   A3           INC     DPTR
   \   00002C   E4           CLR     A
   \   00002D   F0           MOVX    @DPTR,A
    154            afRegister( &GAS_epDesc ); 
   \   00002E                ; Setup parameters for call to function afRegister
   \   00002E   7A..         MOV     R2,#GAS_epDesc & 0xff
   \   000030   7B..         MOV     R3,#(GAS_epDesc >> 8) & 0xff
   \   000032   12....       LCALL   ??afRegister?relay
    155            P1DIR &= ~(1<<3);
   \   000035   53FEF7       ANL     0xfe,#0xf7
    156          
    157          }
   \   000038   7F01         MOV     R7,#0x1
   \   00003A   02....       LJMP    ?BANKED_LEAVE_XDATA
   \   00003D                REQUIRE P1DIR
    158          

   \                                 In  segment BANKED_CODE, align 1, keep-with-next
    159          UINT16 GAS_ProcessEvent( byte task_id, UINT16 events )
   \                     GAS_ProcessEvent:
    160          {
   \   000000   74F4         MOV     A,#-0xc
   \   000002   12....       LCALL   ?BANKED_ENTER_XDATA
   \   000005                ; Saved register size: 12
   \   000005                ; Auto size: 0
   \   000005   8A..         MOV     ?V0 + 0,R2
   \   000007   8B..         MOV     ?V0 + 1,R3
    161            afIncomingMSGPacket_t *MSGpkt;
    162          
    163            if ( events & SYS_EVENT_MSG )
   \   000009   EB           MOV     A,R3
   \   00000A   5480         ANL     A,#0x80
   \   00000C   605C         JZ      ??GAS_ProcessEvent_0
    164            {
    165              MSGpkt = (afIncomingMSGPacket_t *)osal_msg_receive( GAS_TaskID );
   \   00000E                ; Setup parameters for call to function osal_msg_receive
   \   00000E   800E         SJMP    ??GAS_ProcessEvent_1
    166              while ( MSGpkt )
    167              {
    168                switch ( MSGpkt->hdr.event )
    169                {
    170                 
    171                    case ZDO_STATE_CHANGE:
    172                      GAS_NwkState = (devStates_t)(MSGpkt->hdr.status);
    173                      if(GAS_NwkState==DEV_END_DEVICE)
    174                      {
    175                        P1_0=~P1_0;
    176                        osal_set_event(GAS_TaskID,SEND_DATA_EVENT);
    177                      }
    178                      break;
    179                      
    180                    case AF_INCOMING_MSG_CMD:
    181                     GAS_MessageMSGCB( MSGpkt );//新加的信息接收函数
   \                     ??GAS_ProcessEvent_2:
   \   000010                ; Setup parameters for call to function GAS_MessageMSGCB
   \   000010   EE           MOV     A,R6
   \   000011   FA           MOV     R2,A
   \   000012   EF           MOV     A,R7
   \   000013   FB           MOV     R3,A
   \   000014   12....       LCALL   ??GAS_MessageMSGCB?relay
    182                      break;
    183                       
    184                    default:
    185                      break;
    186                }
    187                osal_msg_deallocate( (uint8 *)MSGpkt );
   \                     ??GAS_ProcessEvent_3:
   \   000017                ; Setup parameters for call to function osal_msg_deallocate
   \   000017   EE           MOV     A,R6
   \   000018   FA           MOV     R2,A
   \   000019   EF           MOV     A,R7
   \   00001A   FB           MOV     R3,A
   \   00001B   12....       LCALL   ??osal_msg_deallocate?relay
    188                MSGpkt = (afIncomingMSGPacket_t *)osal_msg_receive( GAS_TaskID );
   \   00001E                ; Setup parameters for call to function osal_msg_receive
   \                     ??GAS_ProcessEvent_1:
   \   00001E   90....       MOV     DPTR,#GAS_TaskID
   \   000021   E0           MOVX    A,@DPTR
   \   000022   F9           MOV     R1,A
   \   000023   12....       LCALL   ??osal_msg_receive?relay
   \   000026   8A..         MOV     ?V0 + 2,R2
   \   000028   8B..         MOV     ?V0 + 3,R3
   \   00002A   AE..         MOV     R6,?V0 + 2
   \   00002C   AF..         MOV     R7,?V0 + 3
   \   00002E   EE           MOV     A,R6
   \   00002F   4F           ORL     A,R7
   \   000030   602F         JZ      ??GAS_ProcessEvent_4
   \   000032   8E82         MOV     DPL,R6
   \   000034   8F83         MOV     DPH,R7
   \   000036   E0           MOVX    A,@DPTR
   \   000037   24E6         ADD     A,#-0x1a
   \   000039   60D5         JZ      ??GAS_ProcessEvent_2
   \   00003B   2449         ADD     A,#0x49
   \   00003D   70D8         JNZ     ??GAS_ProcessEvent_3
   \   00003F   A3           INC     DPTR
   \   000040   E0           MOVX    A,@DPTR
   \   000041   90....       MOV     DPTR,#GAS_NwkState
   \   000044   F0           MOVX    @DPTR,A
   \   000045   6406         XRL     A,#0x6
   \   000047   70CE         JNZ     ??GAS_ProcessEvent_3
   \   000049   D2F0         SETB    B.0
   \   00004B   A290         MOV     C,0x90.0
   \   00004D   30F001       JNB     B.0,??GAS_ProcessEvent_5
   \   000050   B3           CPL     C
   \                     ??GAS_ProcessEvent_5:
   \   000051   9290         MOV     0x90.0,C
   \   000053                ; Setup parameters for call to function osal_set_event
   \   000053   7A01         MOV     R2,#0x1
   \   000055   7B00         MOV     R3,#0x0
   \   000057   90....       MOV     DPTR,#GAS_TaskID
   \   00005A   E0           MOVX    A,@DPTR
   \   00005B   F9           MOV     R1,A
   \   00005C   12....       LCALL   ??osal_set_event?relay
   \   00005F   80B6         SJMP    ??GAS_ProcessEvent_3
    189              }
    190              // return unprocessed events
    191              return (events ^ SYS_EVENT_MSG);
   \                     ??GAS_ProcessEvent_4:
   \   000061   AA..         MOV     R2,?V0 + 0
   \   000063   E5..         MOV     A,?V0 + 1
   \   000065   6480         XRL     A,#0x80
   \   000067   FB           MOV     R3,A
   \   000068   8028         SJMP    ??GAS_ProcessEvent_6
    192            }
    193            if(events&SEND_DATA_EVENT)
   \                     ??GAS_ProcessEvent_0:
   \   00006A   EA           MOV     A,R2
   \   00006B   A2E0         MOV     C,0xE0 /* A   */.0
   \   00006D   501F         JNC     ??GAS_ProcessEvent_7
    194            {
    195              Scan();
   \   00006F                ; Setup parameters for call to function Scan
   \   00006F   12....       LCALL   ??Scan?relay
    196              GAS_SendTheMessage();
   \   000072                ; Setup parameters for call to function GAS_SendTheMessage
   \   000072   12....       LCALL   ??GAS_SendTheMessage?relay
    197              osal_start_timerEx(GAS_TaskID,SEND_DATA_EVENT,3000);
   \   000075                ; Setup parameters for call to function osal_start_timerEx
   \   000075   7CB8         MOV     R4,#-0x48
   \   000077   7D0B         MOV     R5,#0xb
   \   000079   7A01         MOV     R2,#0x1
   \   00007B   7B00         MOV     R3,#0x0
   \   00007D   90....       MOV     DPTR,#GAS_TaskID
   \   000080   E0           MOVX    A,@DPTR
   \   000081   F9           MOV     R1,A
   \   000082   12....       LCALL   ??osal_start_timerEx?relay
    198              return(events^SEND_DATA_EVENT);
   \   000085   E5..         MOV     A,?V0 + 0
   \   000087   6401         XRL     A,#0x1
   \   000089   FA           MOV     R2,A
   \   00008A   AB..         MOV     R3,?V0 + 1
   \   00008C   8004         SJMP    ??GAS_ProcessEvent_6
    199            }
    200            return 0;
   \                     ??GAS_ProcessEvent_7:
   \   00008E   7A00         MOV     R2,#0x0
   \   000090   7B00         MOV     R3,#0x0
   \                     ??GAS_ProcessEvent_6:
   \   000092   7F04         MOV     R7,#0x4
   \   000094   02....       LJMP    ?BANKED_LEAVE_XDATA
   \   000097                REQUIRE _A_P1
    201          }
    202          
    203          //接收到消息进行处理的函数

   \                                 In  segment BANKED_CODE, align 1, keep-with-next
    204          void GAS_MessageMSGCB( afIncomingMSGPacket_t *pkt )
   \                     GAS_MessageMSGCB:
    205          {
   \   000000   74F5         MOV     A,#-0xb
   \   000002   12....       LCALL   ?BANKED_ENTER_XDATA
   \   000005                ; Saved register size: 11
   \   000005                ; Auto size: 4
   \   000005   74FC         MOV     A,#-0x4
   \   000007   12....       LCALL   ?ALLOC_XSTACK8
    206            unsigned char buffer[4]; 
    207            switch ( pkt->clusterId )
   \   00000A   8A82         MOV     DPL,R2
   \   00000C   8B83         MOV     DPH,R3
   \   00000E   A3           INC     DPTR
   \   00000F   A3           INC     DPTR
   \   000010   A3           INC     DPTR
   \   000011   A3           INC     DPTR
   \   000012   E0           MOVX    A,@DPTR
   \   000013   6403         XRL     A,#0x3
   \   000015   7002         JNZ     ??GAS_MessageMSGCB_0
   \   000017   A3           INC     DPTR
   \   000018   E0           MOVX    A,@DPTR
   \                     ??GAS_MessageMSGCB_0:
   \   000019   707C         JNZ     ??GAS_MessageMSGCB_1
    208            {
    209            case Double_CLUSTERID:
    210              osal_memcpy(buffer, pkt->cmd.Data, 4);
   \   00001B                ; Setup parameters for call to function osal_memcpy
   \   00001B   EA           MOV     A,R2
   \   00001C   2422         ADD     A,#0x22
   \   00001E   F582         MOV     DPL,A
   \   000020   EB           MOV     A,R3
   \   000021   3400         ADDC    A,#0x0
   \   000023   F583         MOV     DPH,A
   \   000025   E0           MOVX    A,@DPTR
   \   000026   F5..         MOV     ?V0 + 0,A
   \   000028   A3           INC     DPTR
   \   000029   E0           MOVX    A,@DPTR
   \   00002A   F5..         MOV     ?V0 + 1,A
   \   00002C   75..00       MOV     ?V0 + 2,#0x0
   \   00002F   78..         MOV     R0,#?V0 + 0
   \   000031   12....       LCALL   ?PUSH_XSTACK_I_THREE
   \   000034   7C04         MOV     R4,#0x4
   \   000036   7D00         MOV     R5,#0x0
   \   000038   7403         MOV     A,#0x3
   \   00003A   12....       LCALL   ?XSTACK_DISP0_8
   \   00003D   AA82         MOV     R2,DPL
   \   00003F   AB83         MOV     R3,DPH
   \   000041   12....       LCALL   ??osal_memcpy?relay
   \   000044   7403         MOV     A,#0x3
   \   000046   12....       LCALL   ?DEALLOC_XSTACK8
    211              if(buffer[0] == '5')       
   \   000049   85..82       MOV     DPL,?XSP + 0
   \   00004C   85..83       MOV     DPH,?XSP + 1
   \   00004F   E0           MOVX    A,@DPTR
   \   000050   6435         XRL     A,#0x35
   \   000052   701C         JNZ     ??GAS_MessageMSGCB_2
    212              {
    213                HalLedSet ( HAL_LED_1, HAL_LED_MODE_ON );;
   \   000054                ; Setup parameters for call to function HalLedSet
   \   000054   7A01         MOV     R2,#0x1
   \   000056   7901         MOV     R1,#0x1
   \   000058   12....       LCALL   ??HalLedSet?relay
    214                HalLedSet ( HAL_LED_2, HAL_LED_MODE_ON );;
   \   00005B                ; Setup parameters for call to function HalLedSet
   \   00005B   7A01         MOV     R2,#0x1
   \   00005D   7902         MOV     R1,#0x2
   \   00005F   12....       LCALL   ??HalLedSet?relay
    215                HalLedSet ( HAL_LED_3, HAL_LED_MODE_ON );;
   \   000062                ; Setup parameters for call to function HalLedSet
   \   000062   7A01         MOV     R2,#0x1
   \   000064   7904         MOV     R1,#0x4
   \   000066   12....       LCALL   ??HalLedSet?relay
    216                HalLedSet ( HAL_LED_4, HAL_LED_MODE_ON );;
   \   000069                ; Setup parameters for call to function HalLedSet
   \   000069   7A01         MOV     R2,#0x1
   \   00006B   7908         MOV     R1,#0x8
   \   00006D   12....       LCALL   ??HalLedSet?relay
    217              }
    218              if(buffer[0] == '6')       
   \                     ??GAS_MessageMSGCB_2:
   \   000070   85..82       MOV     DPL,?XSP + 0
   \   000073   85..83       MOV     DPH,?XSP + 1
   \   000076   E0           MOVX    A,@DPTR
   \   000077   6436         XRL     A,#0x36
   \   000079   701C         JNZ     ??GAS_MessageMSGCB_1
    219              {
    220                HalLedSet ( HAL_LED_1, HAL_LED_MODE_OFF );;
   \   00007B                ; Setup parameters for call to function HalLedSet
   \   00007B   7A00         MOV     R2,#0x0
   \   00007D   7901         MOV     R1,#0x1
   \   00007F   12....       LCALL   ??HalLedSet?relay
    221                HalLedSet ( HAL_LED_2, HAL_LED_MODE_OFF );;
   \   000082                ; Setup parameters for call to function HalLedSet
   \   000082   7A00         MOV     R2,#0x0
   \   000084   7902         MOV     R1,#0x2
   \   000086   12....       LCALL   ??HalLedSet?relay
    222                HalLedSet ( HAL_LED_3, HAL_LED_MODE_OFF );;
   \   000089                ; Setup parameters for call to function HalLedSet
   \   000089   7A00         MOV     R2,#0x0
   \   00008B   7904         MOV     R1,#0x4
   \   00008D   12....       LCALL   ??HalLedSet?relay
    223                HalLedSet ( HAL_LED_4, HAL_LED_MODE_OFF );;
   \   000090                ; Setup parameters for call to function HalLedSet
   \   000090   7A00         MOV     R2,#0x0
   \   000092   7908         MOV     R1,#0x8
   \   000094   12....       LCALL   ??HalLedSet?relay
    224              }
    225              break;
    226            }
    227          }
   \                     ??GAS_MessageMSGCB_1:
   \   000097   7404         MOV     A,#0x4
   \   000099   12....       LCALL   ?DEALLOC_XSTACK8
   \   00009C   7F03         MOV     R7,#0x3
   \   00009E   02....       LJMP    ?BANKED_LEAVE_XDATA
    228          

   \                                 In  segment BANKED_CODE, align 1, keep-with-next
    229          void GAS_SendTheMessage(void)
   \                     GAS_SendTheMessage:
    230          { 
   \   000000   74F6         MOV     A,#-0xa
   \   000002   12....       LCALL   ?BANKED_ENTER_XDATA
   \   000005                ; Saved register size: 10
   \   000005                ; Auto size: 22
   \   000005   74EA         MOV     A,#-0x16
   \   000007   12....       LCALL   ?ALLOC_XSTACK8
    231            unsigned char theMessageData[10]="EndDevice";
   \   00000A   90....       MOV     DPTR,#`?<Constant "EndDevice">`
   \   00000D   C082         PUSH    DPL
   \   00000F   740C         MOV     A,#0xc
   \   000011   12....       LCALL   ?XSTACK_DISP0_8
   \   000014   AC82         MOV     R4,DPL
   \   000016   AD83         MOV     R5,DPH
   \   000018   7583..       MOV     DPH,#(`?<Constant "EndDevice">` >> 8) & 0xff
   \   00001B   D082         POP     DPL
   \   00001D   740A         MOV     A,#0xa
   \   00001F   12....       LCALL   ?MOVE_LONG8_XDATA_XDATA
    232          
    233            afAddrType_t my_DstAddr;
    234          
    235            my_DstAddr.addrMode=(afAddrMode_t)Addr16Bit;
   \   000022   7408         MOV     A,#0x8
   \   000024   12....       LCALL   ?XSTACK_DISP0_8
   \   000027   7402         MOV     A,#0x2
   \   000029   F0           MOVX    @DPTR,A
    236            my_DstAddr.endPoint=GAS_ENDPOINT;
   \   00002A   7409         MOV     A,#0x9
   \   00002C   12....       LCALL   ?XSTACK_DISP0_8
   \   00002F   740A         MOV     A,#0xa
   \   000031   F0           MOVX    @DPTR,A
    237            my_DstAddr.addr.shortAddr=0x0000; 
   \   000032   85..82       MOV     DPL,?XSP + 0
   \   000035   85..83       MOV     DPH,?XSP + 1
   \   000038   E4           CLR     A
   \   000039   F0           MOVX    @DPTR,A
   \   00003A   A3           INC     DPTR
   \   00003B   F0           MOVX    @DPTR,A
    238          
    239          
    240            P1DIR &= ~(1<<3);
   \   00003C   53FEF7       ANL     0xfe,#0xf7
    241            
    242            if(GASIN == 1)
   \   00003F   A293         MOV     C,0x90.3
   \   000041   740C         MOV     A,#0xc
   \   000043   5007         JNC     ??GAS_SendTheMessage_0
    243            {
    244              theMessageData[0] = 'N';
   \   000045   12....       LCALL   ?XSTACK_DISP0_8
   \   000048   744E         MOV     A,#0x4e
   \   00004A   8005         SJMP    ??GAS_SendTheMessage_1
    245            } else {
    246              theMessageData[0] = 'Y';
   \                     ??GAS_SendTheMessage_0:
   \   00004C   12....       LCALL   ?XSTACK_DISP0_8
   \   00004F   7459         MOV     A,#0x59
   \                     ??GAS_SendTheMessage_1:
   \   000051   F0           MOVX    @DPTR,A
    247            }
    248          
    249            AF_DataRequest(&my_DstAddr
    250            ,&GAS_epDesc
    251            ,GAS_CLUSTERID
    252            ,1
    253            ,theMessageData
    254            ,&GAS_TransID
    255            ,AF_DISCV_ROUTE
    256            ,AF_DEFAULT_RADIUS);
   \   000052                ; Setup parameters for call to function AF_DataRequest
   \   000052   75..1E       MOV     ?V0 + 0,#0x1e
   \   000055   78..         MOV     R0,#?V0 + 0
   \   000057   12....       LCALL   ?PUSH_XSTACK_I_ONE
   \   00005A   75....       MOV     ?V0 + 0,#GAS_TransID & 0xff
   \   00005D   75....       MOV     ?V0 + 1,#(GAS_TransID >> 8) & 0xff
   \   000060   78..         MOV     R0,#?V0 + 0
   \   000062   12....       LCALL   ?PUSH_XSTACK_I_TWO
   \   000065   740F         MOV     A,#0xf
   \   000067   12....       LCALL   ?XSTACK_DISP0_8
   \   00006A   8582..       MOV     ?V0 + 0,DPL
   \   00006D   8583..       MOV     ?V0 + 1,DPH
   \   000070   78..         MOV     R0,#?V0 + 0
   \   000072   12....       LCALL   ?PUSH_XSTACK_I_TWO
   \   000075   75..01       MOV     ?V0 + 0,#0x1
   \   000078   75..00       MOV     ?V0 + 1,#0x0
   \   00007B   78..         MOV     R0,#?V0 + 0
   \   00007D   12....       LCALL   ?PUSH_XSTACK_I_TWO
   \   000080   75..02       MOV     ?V0 + 0,#0x2
   \   000083   78..         MOV     R0,#?V0 + 0
   \   000085   12....       LCALL   ?PUSH_XSTACK_I_TWO
   \   000088   7920         MOV     R1,#0x20
   \   00008A   7C..         MOV     R4,#GAS_epDesc & 0xff
   \   00008C   7D..         MOV     R5,#(GAS_epDesc >> 8) & 0xff
   \   00008E   7409         MOV     A,#0x9
   \   000090   12....       LCALL   ?XSTACK_DISP0_8
   \   000093   AA82         MOV     R2,DPL
   \   000095   AB83         MOV     R3,DPH
   \   000097   12....       LCALL   ??AF_DataRequest?relay
   \   00009A   7409         MOV     A,#0x9
   \   00009C   12....       LCALL   ?DEALLOC_XSTACK8
    257          }
   \   00009F   7416         MOV     A,#0x16
   \   0000A1   12....       LCALL   ?DEALLOC_XSTACK8
   \   0000A4   7F02         MOV     R7,#0x2
   \   0000A6   02....       LJMP    ?BANKED_LEAVE_XDATA
   \   0000A9                REQUIRE P1DIR
   \   0000A9                REQUIRE _A_P1

   \                                 In  segment XDATA_ID, align 1, keep-with-next
   \                     `?<Initializer for flag>`:
   \   000000   30           DB 48

   \                                 In  segment BANK_RELAYS, align 1
   \                     ??Scan?relay:
   \   000000   12....       LCALL   ?BDISPATCH
   \   000003   ......       DC24    Scan

   \                                 In  segment BANK_RELAYS, align 1
   \                     ??GAS_Init?relay:
   \   000000   12....       LCALL   ?BDISPATCH
   \   000003   ......       DC24    GAS_Init

   \                                 In  segment BANK_RELAYS, align 1
   \                     ??GAS_ProcessEvent?relay:
   \   000000   12....       LCALL   ?BDISPATCH
   \   000003   ......       DC24    GAS_ProcessEvent

   \                                 In  segment BANK_RELAYS, align 1
   \                     ??GAS_MessageMSGCB?relay:
   \   000000   12....       LCALL   ?BDISPATCH
   \   000003   ......       DC24    GAS_MessageMSGCB

   \                                 In  segment BANK_RELAYS, align 1
   \                     ??GAS_SendTheMessage?relay:
   \   000000   12....       LCALL   ?BDISPATCH
   \   000003   ......       DC24    GAS_SendTheMessage

   \                                 In  segment XDATA_ROM_C, align 1
   \                     `?<Constant "EndDevice">`:
   \   000000   456E6444     DB "EndDevice"
   \            65766963
   \            6500    
    258          

   Maximum stack usage in bytes:

     Function                 ISTACK PSTACK XSTACK
     --------                 ------ ------ ------
     GAS_Init                     0      0      9
       -> afRegister              0      0     18
     GAS_MessageMSGCB             0      0     30
       -> osal_memcpy             0      0     36
       -> HalLedSet               0      0     30
       -> HalLedSet               0      0     30
       -> HalLedSet               0      0     30
       -> HalLedSet               0      0     30
       -> HalLedSet               0      0     30
       -> HalLedSet               0      0     30
       -> HalLedSet               0      0     30
       -> HalLedSet               0      0     30
     GAS_ProcessEvent             0      0     12
       -> osal_msg_receive        0      0     24
       -> GAS_MessageMSGCB        0      0     24
       -> osal_msg_deallocate     0      0     24
       -> osal_msg_receive        0      0     24
       -> osal_set_event          0      0     24
       -> Scan                    0      0     24
       -> GAS_SendTheMessage      0      0     24
       -> osal_start_timerEx      0      0     24
     GAS_SendTheMessage           2      0     53
       -> AF_DataRequest          0      0     82
     Scan                         0      0     12


   Segment part sizes:

     Function/Label             Bytes
     --------------             -----
     _A_P1                         1
     P1SEL                         1
     P1DIR                         1
     flag                          1
     GAS_ClusterList               2
     GAS_SimpleDesc               12
     TempDATA                      1
     GAS_epDesc                    6
     GAS_TaskID                    1
     GAS_TransID                   1
     GAS_NwkState                  1
     Scan                          9
     GAS_Init                     61
     GAS_ProcessEvent            151
     GAS_MessageMSGCB            161
     GAS_SendTheMessage          169
     ?<Initializer for flag>       1
     ??Scan?relay                  6
     ??GAS_Init?relay              6
     ??GAS_ProcessEvent?relay      6
     ??GAS_MessageMSGCB?relay      6
     ??GAS_SendTheMessage?relay    6
     ?<Constant "EndDevice">      10

 
 551 bytes in segment BANKED_CODE
  30 bytes in segment BANK_RELAYS
   3 bytes in segment SFR_AN
   1 byte  in segment XDATA_I
   1 byte  in segment XDATA_ID
  24 bytes in segment XDATA_ROM_C
  10 bytes in segment XDATA_Z
 
 582 bytes of CODE  memory
  24 bytes of CONST memory
   0 bytes of DATA  memory (+ 3 bytes shared)
  11 bytes of XDATA memory

Errors: none
Warnings: none
